
payalka_reliz.elf:     file format elf32-littlearm

Sections:
Idx Name          Size      VMA       LMA       File off  Algn
  0 .isr_vector   0000010c  08000000  08000000  00010000  2**0
                  CONTENTS, ALLOC, LOAD, READONLY, DATA
  1 .text         00003f78  08000110  08000110  00010110  2**3
                  CONTENTS, ALLOC, LOAD, READONLY, CODE
  2 .rodata       000013fc  08004088  08004088  00014088  2**1
                  CONTENTS, ALLOC, LOAD, READONLY, DATA
  3 .ARM.extab    00000000  08005484  08005484  000200a4  2**0
                  CONTENTS
  4 .ARM          00000000  08005484  08005484  000200a4  2**0
                  CONTENTS
  5 .preinit_array 00000000  08005484  08005484  000200a4  2**0
                  CONTENTS, ALLOC, LOAD, DATA
  6 .init_array   00000004  08005484  08005484  00015484  2**2
                  CONTENTS, ALLOC, LOAD, DATA
  7 .fini_array   00000004  08005488  08005488  00015488  2**2
                  CONTENTS, ALLOC, LOAD, DATA
  8 .data         000000a4  20000000  0800548c  00020000  2**2
                  CONTENTS, ALLOC, LOAD, DATA
  9 .bss          000001b0  200000a4  08005530  000200a4  2**2
                  ALLOC
 10 ._user_heap_stack 00000604  20000254  08005530  00020254  2**0
                  ALLOC
 11 .ARM.attributes 00000029  00000000  00000000  000200a4  2**0
                  CONTENTS, READONLY
 12 .comment      00000053  00000000  00000000  000200cd  2**0
                  CONTENTS, READONLY
 13 .debug_frame  00000720  00000000  00000000  00020120  2**2
                  CONTENTS, READONLY, DEBUGGING, OCTETS

Disassembly of section .text:

08000110 <__do_global_dtors_aux>:
 8000110:	b510      	push	{r4, lr}
 8000112:	4c05      	ldr	r4, [pc, #20]	; (8000128 <__do_global_dtors_aux+0x18>)
 8000114:	7823      	ldrb	r3, [r4, #0]
 8000116:	b933      	cbnz	r3, 8000126 <__do_global_dtors_aux+0x16>
 8000118:	4b04      	ldr	r3, [pc, #16]	; (800012c <__do_global_dtors_aux+0x1c>)
 800011a:	b113      	cbz	r3, 8000122 <__do_global_dtors_aux+0x12>
 800011c:	4804      	ldr	r0, [pc, #16]	; (8000130 <__do_global_dtors_aux+0x20>)
 800011e:	f3af 8000 	nop.w
 8000122:	2301      	movs	r3, #1
 8000124:	7023      	strb	r3, [r4, #0]
 8000126:	bd10      	pop	{r4, pc}
 8000128:	200000a4 	.word	0x200000a4
 800012c:	00000000 	.word	0x00000000
 8000130:	08004070 	.word	0x08004070

08000134 <frame_dummy>:
 8000134:	b508      	push	{r3, lr}
 8000136:	4b03      	ldr	r3, [pc, #12]	; (8000144 <frame_dummy+0x10>)
 8000138:	b11b      	cbz	r3, 8000142 <frame_dummy+0xe>
 800013a:	4903      	ldr	r1, [pc, #12]	; (8000148 <frame_dummy+0x14>)
 800013c:	4803      	ldr	r0, [pc, #12]	; (800014c <frame_dummy+0x18>)
 800013e:	f3af 8000 	nop.w
 8000142:	bd08      	pop	{r3, pc}
 8000144:	00000000 	.word	0x00000000
 8000148:	200000a8 	.word	0x200000a8
 800014c:	08004070 	.word	0x08004070

08000150 <__aeabi_dmul>:
 8000150:	b570      	push	{r4, r5, r6, lr}
 8000152:	f04f 0cff 	mov.w	ip, #255	; 0xff
 8000156:	f44c 6ce0 	orr.w	ip, ip, #1792	; 0x700
 800015a:	ea1c 5411 	ands.w	r4, ip, r1, lsr #20
 800015e:	bf1d      	ittte	ne
 8000160:	ea1c 5513 	andsne.w	r5, ip, r3, lsr #20
 8000164:	ea94 0f0c 	teqne	r4, ip
 8000168:	ea95 0f0c 	teqne	r5, ip
 800016c:	f000 f8de 	bleq	800032c <__aeabi_dmul+0x1dc>
 8000170:	442c      	add	r4, r5
 8000172:	ea81 0603 	eor.w	r6, r1, r3
 8000176:	ea21 514c 	bic.w	r1, r1, ip, lsl #21
 800017a:	ea23 534c 	bic.w	r3, r3, ip, lsl #21
 800017e:	ea50 3501 	orrs.w	r5, r0, r1, lsl #12
 8000182:	bf18      	it	ne
 8000184:	ea52 3503 	orrsne.w	r5, r2, r3, lsl #12
 8000188:	f441 1180 	orr.w	r1, r1, #1048576	; 0x100000
 800018c:	f443 1380 	orr.w	r3, r3, #1048576	; 0x100000
 8000190:	d038      	beq.n	8000204 <__aeabi_dmul+0xb4>
 8000192:	fba0 ce02 	umull	ip, lr, r0, r2
 8000196:	f04f 0500 	mov.w	r5, #0
 800019a:	fbe1 e502 	umlal	lr, r5, r1, r2
 800019e:	f006 4200 	and.w	r2, r6, #2147483648	; 0x80000000
 80001a2:	fbe0 e503 	umlal	lr, r5, r0, r3
 80001a6:	f04f 0600 	mov.w	r6, #0
 80001aa:	fbe1 5603 	umlal	r5, r6, r1, r3
 80001ae:	f09c 0f00 	teq	ip, #0
 80001b2:	bf18      	it	ne
 80001b4:	f04e 0e01 	orrne.w	lr, lr, #1
 80001b8:	f1a4 04ff 	sub.w	r4, r4, #255	; 0xff
 80001bc:	f5b6 7f00 	cmp.w	r6, #512	; 0x200
 80001c0:	f564 7440 	sbc.w	r4, r4, #768	; 0x300
 80001c4:	d204      	bcs.n	80001d0 <__aeabi_dmul+0x80>
 80001c6:	ea5f 0e4e 	movs.w	lr, lr, lsl #1
 80001ca:	416d      	adcs	r5, r5
 80001cc:	eb46 0606 	adc.w	r6, r6, r6
 80001d0:	ea42 21c6 	orr.w	r1, r2, r6, lsl #11
 80001d4:	ea41 5155 	orr.w	r1, r1, r5, lsr #21
 80001d8:	ea4f 20c5 	mov.w	r0, r5, lsl #11
 80001dc:	ea40 505e 	orr.w	r0, r0, lr, lsr #21
 80001e0:	ea4f 2ece 	mov.w	lr, lr, lsl #11
 80001e4:	f1b4 0cfd 	subs.w	ip, r4, #253	; 0xfd
 80001e8:	bf88      	it	hi
 80001ea:	f5bc 6fe0 	cmphi.w	ip, #1792	; 0x700
 80001ee:	d81e      	bhi.n	800022e <__aeabi_dmul+0xde>
 80001f0:	f1be 4f00 	cmp.w	lr, #2147483648	; 0x80000000
 80001f4:	bf08      	it	eq
 80001f6:	ea5f 0e50 	movseq.w	lr, r0, lsr #1
 80001fa:	f150 0000 	adcs.w	r0, r0, #0
 80001fe:	eb41 5104 	adc.w	r1, r1, r4, lsl #20
 8000202:	bd70      	pop	{r4, r5, r6, pc}
 8000204:	f006 4600 	and.w	r6, r6, #2147483648	; 0x80000000
 8000208:	ea46 0101 	orr.w	r1, r6, r1
 800020c:	ea40 0002 	orr.w	r0, r0, r2
 8000210:	ea81 0103 	eor.w	r1, r1, r3
 8000214:	ebb4 045c 	subs.w	r4, r4, ip, lsr #1
 8000218:	bfc2      	ittt	gt
 800021a:	ebd4 050c 	rsbsgt	r5, r4, ip
 800021e:	ea41 5104 	orrgt.w	r1, r1, r4, lsl #20
 8000222:	bd70      	popgt	{r4, r5, r6, pc}
 8000224:	f441 1180 	orr.w	r1, r1, #1048576	; 0x100000
 8000228:	f04f 0e00 	mov.w	lr, #0
 800022c:	3c01      	subs	r4, #1
 800022e:	f300 80ab 	bgt.w	8000388 <__aeabi_dmul+0x238>
 8000232:	f114 0f36 	cmn.w	r4, #54	; 0x36
 8000236:	bfde      	ittt	le
 8000238:	2000      	movle	r0, #0
 800023a:	f001 4100 	andle.w	r1, r1, #2147483648	; 0x80000000
 800023e:	bd70      	pople	{r4, r5, r6, pc}
 8000240:	f1c4 0400 	rsb	r4, r4, #0
 8000244:	3c20      	subs	r4, #32
 8000246:	da35      	bge.n	80002b4 <__aeabi_dmul+0x164>
 8000248:	340c      	adds	r4, #12
 800024a:	dc1b      	bgt.n	8000284 <__aeabi_dmul+0x134>
 800024c:	f104 0414 	add.w	r4, r4, #20
 8000250:	f1c4 0520 	rsb	r5, r4, #32
 8000254:	fa00 f305 	lsl.w	r3, r0, r5
 8000258:	fa20 f004 	lsr.w	r0, r0, r4
 800025c:	fa01 f205 	lsl.w	r2, r1, r5
 8000260:	ea40 0002 	orr.w	r0, r0, r2
 8000264:	f001 4200 	and.w	r2, r1, #2147483648	; 0x80000000
 8000268:	f021 4100 	bic.w	r1, r1, #2147483648	; 0x80000000
 800026c:	eb10 70d3 	adds.w	r0, r0, r3, lsr #31
 8000270:	fa21 f604 	lsr.w	r6, r1, r4
 8000274:	eb42 0106 	adc.w	r1, r2, r6
 8000278:	ea5e 0e43 	orrs.w	lr, lr, r3, lsl #1
 800027c:	bf08      	it	eq
 800027e:	ea20 70d3 	biceq.w	r0, r0, r3, lsr #31
 8000282:	bd70      	pop	{r4, r5, r6, pc}
 8000284:	f1c4 040c 	rsb	r4, r4, #12
 8000288:	f1c4 0520 	rsb	r5, r4, #32
 800028c:	fa00 f304 	lsl.w	r3, r0, r4
 8000290:	fa20 f005 	lsr.w	r0, r0, r5
 8000294:	fa01 f204 	lsl.w	r2, r1, r4
 8000298:	ea40 0002 	orr.w	r0, r0, r2
 800029c:	f001 4100 	and.w	r1, r1, #2147483648	; 0x80000000
 80002a0:	eb10 70d3 	adds.w	r0, r0, r3, lsr #31
 80002a4:	f141 0100 	adc.w	r1, r1, #0
 80002a8:	ea5e 0e43 	orrs.w	lr, lr, r3, lsl #1
 80002ac:	bf08      	it	eq
 80002ae:	ea20 70d3 	biceq.w	r0, r0, r3, lsr #31
 80002b2:	bd70      	pop	{r4, r5, r6, pc}
 80002b4:	f1c4 0520 	rsb	r5, r4, #32
 80002b8:	fa00 f205 	lsl.w	r2, r0, r5
 80002bc:	ea4e 0e02 	orr.w	lr, lr, r2
 80002c0:	fa20 f304 	lsr.w	r3, r0, r4
 80002c4:	fa01 f205 	lsl.w	r2, r1, r5
 80002c8:	ea43 0302 	orr.w	r3, r3, r2
 80002cc:	fa21 f004 	lsr.w	r0, r1, r4
 80002d0:	f001 4100 	and.w	r1, r1, #2147483648	; 0x80000000
 80002d4:	fa21 f204 	lsr.w	r2, r1, r4
 80002d8:	ea20 0002 	bic.w	r0, r0, r2
 80002dc:	eb00 70d3 	add.w	r0, r0, r3, lsr #31
 80002e0:	ea5e 0e43 	orrs.w	lr, lr, r3, lsl #1
 80002e4:	bf08      	it	eq
 80002e6:	ea20 70d3 	biceq.w	r0, r0, r3, lsr #31
 80002ea:	bd70      	pop	{r4, r5, r6, pc}
 80002ec:	f094 0f00 	teq	r4, #0
 80002f0:	d10f      	bne.n	8000312 <__aeabi_dmul+0x1c2>
 80002f2:	f001 4600 	and.w	r6, r1, #2147483648	; 0x80000000
 80002f6:	0040      	lsls	r0, r0, #1
 80002f8:	eb41 0101 	adc.w	r1, r1, r1
 80002fc:	f411 1f80 	tst.w	r1, #1048576	; 0x100000
 8000300:	bf08      	it	eq
 8000302:	3c01      	subeq	r4, #1
 8000304:	d0f7      	beq.n	80002f6 <__aeabi_dmul+0x1a6>
 8000306:	ea41 0106 	orr.w	r1, r1, r6
 800030a:	f095 0f00 	teq	r5, #0
 800030e:	bf18      	it	ne
 8000310:	4770      	bxne	lr
 8000312:	f003 4600 	and.w	r6, r3, #2147483648	; 0x80000000
 8000316:	0052      	lsls	r2, r2, #1
 8000318:	eb43 0303 	adc.w	r3, r3, r3
 800031c:	f413 1f80 	tst.w	r3, #1048576	; 0x100000
 8000320:	bf08      	it	eq
 8000322:	3d01      	subeq	r5, #1
 8000324:	d0f7      	beq.n	8000316 <__aeabi_dmul+0x1c6>
 8000326:	ea43 0306 	orr.w	r3, r3, r6
 800032a:	4770      	bx	lr
 800032c:	ea94 0f0c 	teq	r4, ip
 8000330:	ea0c 5513 	and.w	r5, ip, r3, lsr #20
 8000334:	bf18      	it	ne
 8000336:	ea95 0f0c 	teqne	r5, ip
 800033a:	d00c      	beq.n	8000356 <__aeabi_dmul+0x206>
 800033c:	ea50 0641 	orrs.w	r6, r0, r1, lsl #1
 8000340:	bf18      	it	ne
 8000342:	ea52 0643 	orrsne.w	r6, r2, r3, lsl #1
 8000346:	d1d1      	bne.n	80002ec <__aeabi_dmul+0x19c>
 8000348:	ea81 0103 	eor.w	r1, r1, r3
 800034c:	f001 4100 	and.w	r1, r1, #2147483648	; 0x80000000
 8000350:	f04f 0000 	mov.w	r0, #0
 8000354:	bd70      	pop	{r4, r5, r6, pc}
 8000356:	ea50 0641 	orrs.w	r6, r0, r1, lsl #1
 800035a:	bf06      	itte	eq
 800035c:	4610      	moveq	r0, r2
 800035e:	4619      	moveq	r1, r3
 8000360:	ea52 0643 	orrsne.w	r6, r2, r3, lsl #1
 8000364:	d019      	beq.n	800039a <__aeabi_dmul+0x24a>
 8000366:	ea94 0f0c 	teq	r4, ip
 800036a:	d102      	bne.n	8000372 <__aeabi_dmul+0x222>
 800036c:	ea50 3601 	orrs.w	r6, r0, r1, lsl #12
 8000370:	d113      	bne.n	800039a <__aeabi_dmul+0x24a>
 8000372:	ea95 0f0c 	teq	r5, ip
 8000376:	d105      	bne.n	8000384 <__aeabi_dmul+0x234>
 8000378:	ea52 3603 	orrs.w	r6, r2, r3, lsl #12
 800037c:	bf1c      	itt	ne
 800037e:	4610      	movne	r0, r2
 8000380:	4619      	movne	r1, r3
 8000382:	d10a      	bne.n	800039a <__aeabi_dmul+0x24a>
 8000384:	ea81 0103 	eor.w	r1, r1, r3
 8000388:	f001 4100 	and.w	r1, r1, #2147483648	; 0x80000000
 800038c:	f041 41fe 	orr.w	r1, r1, #2130706432	; 0x7f000000
 8000390:	f441 0170 	orr.w	r1, r1, #15728640	; 0xf00000
 8000394:	f04f 0000 	mov.w	r0, #0
 8000398:	bd70      	pop	{r4, r5, r6, pc}
 800039a:	f041 41fe 	orr.w	r1, r1, #2130706432	; 0x7f000000
 800039e:	f441 0178 	orr.w	r1, r1, #16252928	; 0xf80000
 80003a2:	bd70      	pop	{r4, r5, r6, pc}

080003a4 <__aeabi_drsub>:
 80003a4:	f081 4100 	eor.w	r1, r1, #2147483648	; 0x80000000
 80003a8:	e002      	b.n	80003b0 <__adddf3>
 80003aa:	bf00      	nop

080003ac <__aeabi_dsub>:
 80003ac:	f083 4300 	eor.w	r3, r3, #2147483648	; 0x80000000

080003b0 <__adddf3>:
 80003b0:	b530      	push	{r4, r5, lr}
 80003b2:	ea4f 0441 	mov.w	r4, r1, lsl #1
 80003b6:	ea4f 0543 	mov.w	r5, r3, lsl #1
 80003ba:	ea94 0f05 	teq	r4, r5
 80003be:	bf08      	it	eq
 80003c0:	ea90 0f02 	teqeq	r0, r2
 80003c4:	bf1f      	itttt	ne
 80003c6:	ea54 0c00 	orrsne.w	ip, r4, r0
 80003ca:	ea55 0c02 	orrsne.w	ip, r5, r2
 80003ce:	ea7f 5c64 	mvnsne.w	ip, r4, asr #21
 80003d2:	ea7f 5c65 	mvnsne.w	ip, r5, asr #21
 80003d6:	f000 80e2 	beq.w	800059e <__adddf3+0x1ee>
 80003da:	ea4f 5454 	mov.w	r4, r4, lsr #21
 80003de:	ebd4 5555 	rsbs	r5, r4, r5, lsr #21
 80003e2:	bfb8      	it	lt
 80003e4:	426d      	neglt	r5, r5
 80003e6:	dd0c      	ble.n	8000402 <__adddf3+0x52>
 80003e8:	442c      	add	r4, r5
 80003ea:	ea80 0202 	eor.w	r2, r0, r2
 80003ee:	ea81 0303 	eor.w	r3, r1, r3
 80003f2:	ea82 0000 	eor.w	r0, r2, r0
 80003f6:	ea83 0101 	eor.w	r1, r3, r1
 80003fa:	ea80 0202 	eor.w	r2, r0, r2
 80003fe:	ea81 0303 	eor.w	r3, r1, r3
 8000402:	2d36      	cmp	r5, #54	; 0x36
 8000404:	bf88      	it	hi
 8000406:	bd30      	pophi	{r4, r5, pc}
 8000408:	f011 4f00 	tst.w	r1, #2147483648	; 0x80000000
 800040c:	ea4f 3101 	mov.w	r1, r1, lsl #12
 8000410:	f44f 1c80 	mov.w	ip, #1048576	; 0x100000
 8000414:	ea4c 3111 	orr.w	r1, ip, r1, lsr #12
 8000418:	d002      	beq.n	8000420 <__adddf3+0x70>
 800041a:	4240      	negs	r0, r0
 800041c:	eb61 0141 	sbc.w	r1, r1, r1, lsl #1
 8000420:	f013 4f00 	tst.w	r3, #2147483648	; 0x80000000
 8000424:	ea4f 3303 	mov.w	r3, r3, lsl #12
 8000428:	ea4c 3313 	orr.w	r3, ip, r3, lsr #12
 800042c:	d002      	beq.n	8000434 <__adddf3+0x84>
 800042e:	4252      	negs	r2, r2
 8000430:	eb63 0343 	sbc.w	r3, r3, r3, lsl #1
 8000434:	ea94 0f05 	teq	r4, r5
 8000438:	f000 80a7 	beq.w	800058a <__adddf3+0x1da>
 800043c:	f1a4 0401 	sub.w	r4, r4, #1
 8000440:	f1d5 0e20 	rsbs	lr, r5, #32
 8000444:	db0d      	blt.n	8000462 <__adddf3+0xb2>
 8000446:	fa02 fc0e 	lsl.w	ip, r2, lr
 800044a:	fa22 f205 	lsr.w	r2, r2, r5
 800044e:	1880      	adds	r0, r0, r2
 8000450:	f141 0100 	adc.w	r1, r1, #0
 8000454:	fa03 f20e 	lsl.w	r2, r3, lr
 8000458:	1880      	adds	r0, r0, r2
 800045a:	fa43 f305 	asr.w	r3, r3, r5
 800045e:	4159      	adcs	r1, r3
 8000460:	e00e      	b.n	8000480 <__adddf3+0xd0>
 8000462:	f1a5 0520 	sub.w	r5, r5, #32
 8000466:	f10e 0e20 	add.w	lr, lr, #32
 800046a:	2a01      	cmp	r2, #1
 800046c:	fa03 fc0e 	lsl.w	ip, r3, lr
 8000470:	bf28      	it	cs
 8000472:	f04c 0c02 	orrcs.w	ip, ip, #2
 8000476:	fa43 f305 	asr.w	r3, r3, r5
 800047a:	18c0      	adds	r0, r0, r3
 800047c:	eb51 71e3 	adcs.w	r1, r1, r3, asr #31
 8000480:	f001 4500 	and.w	r5, r1, #2147483648	; 0x80000000
 8000484:	d507      	bpl.n	8000496 <__adddf3+0xe6>
 8000486:	f04f 0e00 	mov.w	lr, #0
 800048a:	f1dc 0c00 	rsbs	ip, ip, #0
 800048e:	eb7e 0000 	sbcs.w	r0, lr, r0
 8000492:	eb6e 0101 	sbc.w	r1, lr, r1
 8000496:	f5b1 1f80 	cmp.w	r1, #1048576	; 0x100000
 800049a:	d31b      	bcc.n	80004d4 <__adddf3+0x124>
 800049c:	f5b1 1f00 	cmp.w	r1, #2097152	; 0x200000
 80004a0:	d30c      	bcc.n	80004bc <__adddf3+0x10c>
 80004a2:	0849      	lsrs	r1, r1, #1
 80004a4:	ea5f 0030 	movs.w	r0, r0, rrx
 80004a8:	ea4f 0c3c 	mov.w	ip, ip, rrx
 80004ac:	f104 0401 	add.w	r4, r4, #1
 80004b0:	ea4f 5244 	mov.w	r2, r4, lsl #21
 80004b4:	f512 0f80 	cmn.w	r2, #4194304	; 0x400000
 80004b8:	f080 809a 	bcs.w	80005f0 <__adddf3+0x240>
 80004bc:	f1bc 4f00 	cmp.w	ip, #2147483648	; 0x80000000
 80004c0:	bf08      	it	eq
 80004c2:	ea5f 0c50 	movseq.w	ip, r0, lsr #1
 80004c6:	f150 0000 	adcs.w	r0, r0, #0
 80004ca:	eb41 5104 	adc.w	r1, r1, r4, lsl #20
 80004ce:	ea41 0105 	orr.w	r1, r1, r5
 80004d2:	bd30      	pop	{r4, r5, pc}
 80004d4:	ea5f 0c4c 	movs.w	ip, ip, lsl #1
 80004d8:	4140      	adcs	r0, r0
 80004da:	eb41 0101 	adc.w	r1, r1, r1
 80004de:	3c01      	subs	r4, #1
 80004e0:	bf28      	it	cs
 80004e2:	f5b1 1f80 	cmpcs.w	r1, #1048576	; 0x100000
 80004e6:	d2e9      	bcs.n	80004bc <__adddf3+0x10c>
 80004e8:	f091 0f00 	teq	r1, #0
 80004ec:	bf04      	itt	eq
 80004ee:	4601      	moveq	r1, r0
 80004f0:	2000      	moveq	r0, #0
 80004f2:	fab1 f381 	clz	r3, r1
 80004f6:	bf08      	it	eq
 80004f8:	3320      	addeq	r3, #32
 80004fa:	f1a3 030b 	sub.w	r3, r3, #11
 80004fe:	f1b3 0220 	subs.w	r2, r3, #32
 8000502:	da0c      	bge.n	800051e <__adddf3+0x16e>
 8000504:	320c      	adds	r2, #12
 8000506:	dd08      	ble.n	800051a <__adddf3+0x16a>
 8000508:	f102 0c14 	add.w	ip, r2, #20
 800050c:	f1c2 020c 	rsb	r2, r2, #12
 8000510:	fa01 f00c 	lsl.w	r0, r1, ip
 8000514:	fa21 f102 	lsr.w	r1, r1, r2
 8000518:	e00c      	b.n	8000534 <__adddf3+0x184>
 800051a:	f102 0214 	add.w	r2, r2, #20
 800051e:	bfd8      	it	le
 8000520:	f1c2 0c20 	rsble	ip, r2, #32
 8000524:	fa01 f102 	lsl.w	r1, r1, r2
 8000528:	fa20 fc0c 	lsr.w	ip, r0, ip
 800052c:	bfdc      	itt	le
 800052e:	ea41 010c 	orrle.w	r1, r1, ip
 8000532:	4090      	lslle	r0, r2
 8000534:	1ae4      	subs	r4, r4, r3
 8000536:	bfa2      	ittt	ge
 8000538:	eb01 5104 	addge.w	r1, r1, r4, lsl #20
 800053c:	4329      	orrge	r1, r5
 800053e:	bd30      	popge	{r4, r5, pc}
 8000540:	ea6f 0404 	mvn.w	r4, r4
 8000544:	3c1f      	subs	r4, #31
 8000546:	da1c      	bge.n	8000582 <__adddf3+0x1d2>
 8000548:	340c      	adds	r4, #12
 800054a:	dc0e      	bgt.n	800056a <__adddf3+0x1ba>
 800054c:	f104 0414 	add.w	r4, r4, #20
 8000550:	f1c4 0220 	rsb	r2, r4, #32
 8000554:	fa20 f004 	lsr.w	r0, r0, r4
 8000558:	fa01 f302 	lsl.w	r3, r1, r2
 800055c:	ea40 0003 	orr.w	r0, r0, r3
 8000560:	fa21 f304 	lsr.w	r3, r1, r4
 8000564:	ea45 0103 	orr.w	r1, r5, r3
 8000568:	bd30      	pop	{r4, r5, pc}
 800056a:	f1c4 040c 	rsb	r4, r4, #12
 800056e:	f1c4 0220 	rsb	r2, r4, #32
 8000572:	fa20 f002 	lsr.w	r0, r0, r2
 8000576:	fa01 f304 	lsl.w	r3, r1, r4
 800057a:	ea40 0003 	orr.w	r0, r0, r3
 800057e:	4629      	mov	r1, r5
 8000580:	bd30      	pop	{r4, r5, pc}
 8000582:	fa21 f004 	lsr.w	r0, r1, r4
 8000586:	4629      	mov	r1, r5
 8000588:	bd30      	pop	{r4, r5, pc}
 800058a:	f094 0f00 	teq	r4, #0
 800058e:	f483 1380 	eor.w	r3, r3, #1048576	; 0x100000
 8000592:	bf06      	itte	eq
 8000594:	f481 1180 	eoreq.w	r1, r1, #1048576	; 0x100000
 8000598:	3401      	addeq	r4, #1
 800059a:	3d01      	subne	r5, #1
 800059c:	e74e      	b.n	800043c <__adddf3+0x8c>
 800059e:	ea7f 5c64 	mvns.w	ip, r4, asr #21
 80005a2:	bf18      	it	ne
 80005a4:	ea7f 5c65 	mvnsne.w	ip, r5, asr #21
 80005a8:	d029      	beq.n	80005fe <__adddf3+0x24e>
 80005aa:	ea94 0f05 	teq	r4, r5
 80005ae:	bf08      	it	eq
 80005b0:	ea90 0f02 	teqeq	r0, r2
 80005b4:	d005      	beq.n	80005c2 <__adddf3+0x212>
 80005b6:	ea54 0c00 	orrs.w	ip, r4, r0
 80005ba:	bf04      	itt	eq
 80005bc:	4619      	moveq	r1, r3
 80005be:	4610      	moveq	r0, r2
 80005c0:	bd30      	pop	{r4, r5, pc}
 80005c2:	ea91 0f03 	teq	r1, r3
 80005c6:	bf1e      	ittt	ne
 80005c8:	2100      	movne	r1, #0
 80005ca:	2000      	movne	r0, #0
 80005cc:	bd30      	popne	{r4, r5, pc}
 80005ce:	ea5f 5c54 	movs.w	ip, r4, lsr #21
 80005d2:	d105      	bne.n	80005e0 <__adddf3+0x230>
 80005d4:	0040      	lsls	r0, r0, #1
 80005d6:	4149      	adcs	r1, r1
 80005d8:	bf28      	it	cs
 80005da:	f041 4100 	orrcs.w	r1, r1, #2147483648	; 0x80000000
 80005de:	bd30      	pop	{r4, r5, pc}
 80005e0:	f514 0480 	adds.w	r4, r4, #4194304	; 0x400000
 80005e4:	bf3c      	itt	cc
 80005e6:	f501 1180 	addcc.w	r1, r1, #1048576	; 0x100000
 80005ea:	bd30      	popcc	{r4, r5, pc}
 80005ec:	f001 4500 	and.w	r5, r1, #2147483648	; 0x80000000
 80005f0:	f045 41fe 	orr.w	r1, r5, #2130706432	; 0x7f000000
 80005f4:	f441 0170 	orr.w	r1, r1, #15728640	; 0xf00000
 80005f8:	f04f 0000 	mov.w	r0, #0
 80005fc:	bd30      	pop	{r4, r5, pc}
 80005fe:	ea7f 5c64 	mvns.w	ip, r4, asr #21
 8000602:	bf1a      	itte	ne
 8000604:	4619      	movne	r1, r3
 8000606:	4610      	movne	r0, r2
 8000608:	ea7f 5c65 	mvnseq.w	ip, r5, asr #21
 800060c:	bf1c      	itt	ne
 800060e:	460b      	movne	r3, r1
 8000610:	4602      	movne	r2, r0
 8000612:	ea50 3401 	orrs.w	r4, r0, r1, lsl #12
 8000616:	bf06      	itte	eq
 8000618:	ea52 3503 	orrseq.w	r5, r2, r3, lsl #12
 800061c:	ea91 0f03 	teqeq	r1, r3
 8000620:	f441 2100 	orrne.w	r1, r1, #524288	; 0x80000
 8000624:	bd30      	pop	{r4, r5, pc}
 8000626:	bf00      	nop

08000628 <__aeabi_ui2d>:
 8000628:	f090 0f00 	teq	r0, #0
 800062c:	bf04      	itt	eq
 800062e:	2100      	moveq	r1, #0
 8000630:	4770      	bxeq	lr
 8000632:	b530      	push	{r4, r5, lr}
 8000634:	f44f 6480 	mov.w	r4, #1024	; 0x400
 8000638:	f104 0432 	add.w	r4, r4, #50	; 0x32
 800063c:	f04f 0500 	mov.w	r5, #0
 8000640:	f04f 0100 	mov.w	r1, #0
 8000644:	e750      	b.n	80004e8 <__adddf3+0x138>
 8000646:	bf00      	nop

08000648 <__aeabi_i2d>:
 8000648:	f090 0f00 	teq	r0, #0
 800064c:	bf04      	itt	eq
 800064e:	2100      	moveq	r1, #0
 8000650:	4770      	bxeq	lr
 8000652:	b530      	push	{r4, r5, lr}
 8000654:	f44f 6480 	mov.w	r4, #1024	; 0x400
 8000658:	f104 0432 	add.w	r4, r4, #50	; 0x32
 800065c:	f010 4500 	ands.w	r5, r0, #2147483648	; 0x80000000
 8000660:	bf48      	it	mi
 8000662:	4240      	negmi	r0, r0
 8000664:	f04f 0100 	mov.w	r1, #0
 8000668:	e73e      	b.n	80004e8 <__adddf3+0x138>
 800066a:	bf00      	nop

0800066c <__aeabi_f2d>:
 800066c:	0042      	lsls	r2, r0, #1
 800066e:	ea4f 01e2 	mov.w	r1, r2, asr #3
 8000672:	ea4f 0131 	mov.w	r1, r1, rrx
 8000676:	ea4f 7002 	mov.w	r0, r2, lsl #28
 800067a:	bf1f      	itttt	ne
 800067c:	f012 437f 	andsne.w	r3, r2, #4278190080	; 0xff000000
 8000680:	f093 4f7f 	teqne	r3, #4278190080	; 0xff000000
 8000684:	f081 5160 	eorne.w	r1, r1, #939524096	; 0x38000000
 8000688:	4770      	bxne	lr
 800068a:	f032 427f 	bics.w	r2, r2, #4278190080	; 0xff000000
 800068e:	bf08      	it	eq
 8000690:	4770      	bxeq	lr
 8000692:	f093 4f7f 	teq	r3, #4278190080	; 0xff000000
 8000696:	bf04      	itt	eq
 8000698:	f441 2100 	orreq.w	r1, r1, #524288	; 0x80000
 800069c:	4770      	bxeq	lr
 800069e:	b530      	push	{r4, r5, lr}
 80006a0:	f44f 7460 	mov.w	r4, #896	; 0x380
 80006a4:	f001 4500 	and.w	r5, r1, #2147483648	; 0x80000000
 80006a8:	f021 4100 	bic.w	r1, r1, #2147483648	; 0x80000000
 80006ac:	e71c      	b.n	80004e8 <__adddf3+0x138>
 80006ae:	bf00      	nop

080006b0 <__aeabi_ul2d>:
 80006b0:	ea50 0201 	orrs.w	r2, r0, r1
 80006b4:	bf08      	it	eq
 80006b6:	4770      	bxeq	lr
 80006b8:	b530      	push	{r4, r5, lr}
 80006ba:	f04f 0500 	mov.w	r5, #0
 80006be:	e00a      	b.n	80006d6 <__aeabi_l2d+0x16>

080006c0 <__aeabi_l2d>:
 80006c0:	ea50 0201 	orrs.w	r2, r0, r1
 80006c4:	bf08      	it	eq
 80006c6:	4770      	bxeq	lr
 80006c8:	b530      	push	{r4, r5, lr}
 80006ca:	f011 4500 	ands.w	r5, r1, #2147483648	; 0x80000000
 80006ce:	d502      	bpl.n	80006d6 <__aeabi_l2d+0x16>
 80006d0:	4240      	negs	r0, r0
 80006d2:	eb61 0141 	sbc.w	r1, r1, r1, lsl #1
 80006d6:	f44f 6480 	mov.w	r4, #1024	; 0x400
 80006da:	f104 0432 	add.w	r4, r4, #50	; 0x32
 80006de:	ea5f 5c91 	movs.w	ip, r1, lsr #22
 80006e2:	f43f aed8 	beq.w	8000496 <__adddf3+0xe6>
 80006e6:	f04f 0203 	mov.w	r2, #3
 80006ea:	ea5f 0cdc 	movs.w	ip, ip, lsr #3
 80006ee:	bf18      	it	ne
 80006f0:	3203      	addne	r2, #3
 80006f2:	ea5f 0cdc 	movs.w	ip, ip, lsr #3
 80006f6:	bf18      	it	ne
 80006f8:	3203      	addne	r2, #3
 80006fa:	eb02 02dc 	add.w	r2, r2, ip, lsr #3
 80006fe:	f1c2 0320 	rsb	r3, r2, #32
 8000702:	fa00 fc03 	lsl.w	ip, r0, r3
 8000706:	fa20 f002 	lsr.w	r0, r0, r2
 800070a:	fa01 fe03 	lsl.w	lr, r1, r3
 800070e:	ea40 000e 	orr.w	r0, r0, lr
 8000712:	fa21 f102 	lsr.w	r1, r1, r2
 8000716:	4414      	add	r4, r2
 8000718:	e6bd      	b.n	8000496 <__adddf3+0xe6>
 800071a:	bf00      	nop

0800071c <__aeabi_d2f>:
 800071c:	ea4f 0241 	mov.w	r2, r1, lsl #1
 8000720:	f1b2 43e0 	subs.w	r3, r2, #1879048192	; 0x70000000
 8000724:	bf24      	itt	cs
 8000726:	f5b3 1c00 	subscs.w	ip, r3, #2097152	; 0x200000
 800072a:	f1dc 5cfe 	rsbscs	ip, ip, #532676608	; 0x1fc00000
 800072e:	d90d      	bls.n	800074c <__aeabi_d2f+0x30>
 8000730:	f001 4c00 	and.w	ip, r1, #2147483648	; 0x80000000
 8000734:	ea4f 02c0 	mov.w	r2, r0, lsl #3
 8000738:	ea4c 7050 	orr.w	r0, ip, r0, lsr #29
 800073c:	f1b2 4f00 	cmp.w	r2, #2147483648	; 0x80000000
 8000740:	eb40 0083 	adc.w	r0, r0, r3, lsl #2
 8000744:	bf08      	it	eq
 8000746:	f020 0001 	biceq.w	r0, r0, #1
 800074a:	4770      	bx	lr
 800074c:	f011 4f80 	tst.w	r1, #1073741824	; 0x40000000
 8000750:	d121      	bne.n	8000796 <__aeabi_d2f+0x7a>
 8000752:	f113 7238 	adds.w	r2, r3, #48234496	; 0x2e00000
 8000756:	bfbc      	itt	lt
 8000758:	f001 4000 	andlt.w	r0, r1, #2147483648	; 0x80000000
 800075c:	4770      	bxlt	lr
 800075e:	f441 1180 	orr.w	r1, r1, #1048576	; 0x100000
 8000762:	ea4f 5252 	mov.w	r2, r2, lsr #21
 8000766:	f1c2 0218 	rsb	r2, r2, #24
 800076a:	f1c2 0c20 	rsb	ip, r2, #32
 800076e:	fa10 f30c 	lsls.w	r3, r0, ip
 8000772:	fa20 f002 	lsr.w	r0, r0, r2
 8000776:	bf18      	it	ne
 8000778:	f040 0001 	orrne.w	r0, r0, #1
 800077c:	ea4f 23c1 	mov.w	r3, r1, lsl #11
 8000780:	ea4f 23d3 	mov.w	r3, r3, lsr #11
 8000784:	fa03 fc0c 	lsl.w	ip, r3, ip
 8000788:	ea40 000c 	orr.w	r0, r0, ip
 800078c:	fa23 f302 	lsr.w	r3, r3, r2
 8000790:	ea4f 0343 	mov.w	r3, r3, lsl #1
 8000794:	e7cc      	b.n	8000730 <__aeabi_d2f+0x14>
 8000796:	ea7f 5362 	mvns.w	r3, r2, asr #21
 800079a:	d107      	bne.n	80007ac <__aeabi_d2f+0x90>
 800079c:	ea50 3301 	orrs.w	r3, r0, r1, lsl #12
 80007a0:	bf1e      	ittt	ne
 80007a2:	f04f 40fe 	movne.w	r0, #2130706432	; 0x7f000000
 80007a6:	f440 0040 	orrne.w	r0, r0, #12582912	; 0xc00000
 80007aa:	4770      	bxne	lr
 80007ac:	f001 4000 	and.w	r0, r1, #2147483648	; 0x80000000
 80007b0:	f040 40fe 	orr.w	r0, r0, #2130706432	; 0x7f000000
 80007b4:	f440 0000 	orr.w	r0, r0, #8388608	; 0x800000
 80007b8:	4770      	bx	lr
 80007ba:	bf00      	nop

080007bc <__aeabi_frsub>:
 80007bc:	f080 4000 	eor.w	r0, r0, #2147483648	; 0x80000000
 80007c0:	e002      	b.n	80007c8 <__addsf3>
 80007c2:	bf00      	nop

080007c4 <__aeabi_fsub>:
 80007c4:	f081 4100 	eor.w	r1, r1, #2147483648	; 0x80000000

080007c8 <__addsf3>:
 80007c8:	0042      	lsls	r2, r0, #1
 80007ca:	bf1f      	itttt	ne
 80007cc:	ea5f 0341 	movsne.w	r3, r1, lsl #1
 80007d0:	ea92 0f03 	teqne	r2, r3
 80007d4:	ea7f 6c22 	mvnsne.w	ip, r2, asr #24
 80007d8:	ea7f 6c23 	mvnsne.w	ip, r3, asr #24
 80007dc:	d06a      	beq.n	80008b4 <__addsf3+0xec>
 80007de:	ea4f 6212 	mov.w	r2, r2, lsr #24
 80007e2:	ebd2 6313 	rsbs	r3, r2, r3, lsr #24
 80007e6:	bfc1      	itttt	gt
 80007e8:	18d2      	addgt	r2, r2, r3
 80007ea:	4041      	eorgt	r1, r0
 80007ec:	4048      	eorgt	r0, r1
 80007ee:	4041      	eorgt	r1, r0
 80007f0:	bfb8      	it	lt
 80007f2:	425b      	neglt	r3, r3
 80007f4:	2b19      	cmp	r3, #25
 80007f6:	bf88      	it	hi
 80007f8:	4770      	bxhi	lr
 80007fa:	f010 4f00 	tst.w	r0, #2147483648	; 0x80000000
 80007fe:	f440 0000 	orr.w	r0, r0, #8388608	; 0x800000
 8000802:	f020 407f 	bic.w	r0, r0, #4278190080	; 0xff000000
 8000806:	bf18      	it	ne
 8000808:	4240      	negne	r0, r0
 800080a:	f011 4f00 	tst.w	r1, #2147483648	; 0x80000000
 800080e:	f441 0100 	orr.w	r1, r1, #8388608	; 0x800000
 8000812:	f021 417f 	bic.w	r1, r1, #4278190080	; 0xff000000
 8000816:	bf18      	it	ne
 8000818:	4249      	negne	r1, r1
 800081a:	ea92 0f03 	teq	r2, r3
 800081e:	d03f      	beq.n	80008a0 <__addsf3+0xd8>
 8000820:	f1a2 0201 	sub.w	r2, r2, #1
 8000824:	fa41 fc03 	asr.w	ip, r1, r3
 8000828:	eb10 000c 	adds.w	r0, r0, ip
 800082c:	f1c3 0320 	rsb	r3, r3, #32
 8000830:	fa01 f103 	lsl.w	r1, r1, r3
 8000834:	f000 4300 	and.w	r3, r0, #2147483648	; 0x80000000
 8000838:	d502      	bpl.n	8000840 <__addsf3+0x78>
 800083a:	4249      	negs	r1, r1
 800083c:	eb60 0040 	sbc.w	r0, r0, r0, lsl #1
 8000840:	f5b0 0f00 	cmp.w	r0, #8388608	; 0x800000
 8000844:	d313      	bcc.n	800086e <__addsf3+0xa6>
 8000846:	f1b0 7f80 	cmp.w	r0, #16777216	; 0x1000000
 800084a:	d306      	bcc.n	800085a <__addsf3+0x92>
 800084c:	0840      	lsrs	r0, r0, #1
 800084e:	ea4f 0131 	mov.w	r1, r1, rrx
 8000852:	f102 0201 	add.w	r2, r2, #1
 8000856:	2afe      	cmp	r2, #254	; 0xfe
 8000858:	d251      	bcs.n	80008fe <__addsf3+0x136>
 800085a:	f1b1 4f00 	cmp.w	r1, #2147483648	; 0x80000000
 800085e:	eb40 50c2 	adc.w	r0, r0, r2, lsl #23
 8000862:	bf08      	it	eq
 8000864:	f020 0001 	biceq.w	r0, r0, #1
 8000868:	ea40 0003 	orr.w	r0, r0, r3
 800086c:	4770      	bx	lr
 800086e:	0049      	lsls	r1, r1, #1
 8000870:	eb40 0000 	adc.w	r0, r0, r0
 8000874:	3a01      	subs	r2, #1
 8000876:	bf28      	it	cs
 8000878:	f5b0 0f00 	cmpcs.w	r0, #8388608	; 0x800000
 800087c:	d2ed      	bcs.n	800085a <__addsf3+0x92>
 800087e:	fab0 fc80 	clz	ip, r0
 8000882:	f1ac 0c08 	sub.w	ip, ip, #8
 8000886:	ebb2 020c 	subs.w	r2, r2, ip
 800088a:	fa00 f00c 	lsl.w	r0, r0, ip
 800088e:	bfaa      	itet	ge
 8000890:	eb00 50c2 	addge.w	r0, r0, r2, lsl #23
 8000894:	4252      	neglt	r2, r2
 8000896:	4318      	orrge	r0, r3
 8000898:	bfbc      	itt	lt
 800089a:	40d0      	lsrlt	r0, r2
 800089c:	4318      	orrlt	r0, r3
 800089e:	4770      	bx	lr
 80008a0:	f092 0f00 	teq	r2, #0
 80008a4:	f481 0100 	eor.w	r1, r1, #8388608	; 0x800000
 80008a8:	bf06      	itte	eq
 80008aa:	f480 0000 	eoreq.w	r0, r0, #8388608	; 0x800000
 80008ae:	3201      	addeq	r2, #1
 80008b0:	3b01      	subne	r3, #1
 80008b2:	e7b5      	b.n	8000820 <__addsf3+0x58>
 80008b4:	ea4f 0341 	mov.w	r3, r1, lsl #1
 80008b8:	ea7f 6c22 	mvns.w	ip, r2, asr #24
 80008bc:	bf18      	it	ne
 80008be:	ea7f 6c23 	mvnsne.w	ip, r3, asr #24
 80008c2:	d021      	beq.n	8000908 <__addsf3+0x140>
 80008c4:	ea92 0f03 	teq	r2, r3
 80008c8:	d004      	beq.n	80008d4 <__addsf3+0x10c>
 80008ca:	f092 0f00 	teq	r2, #0
 80008ce:	bf08      	it	eq
 80008d0:	4608      	moveq	r0, r1
 80008d2:	4770      	bx	lr
 80008d4:	ea90 0f01 	teq	r0, r1
 80008d8:	bf1c      	itt	ne
 80008da:	2000      	movne	r0, #0
 80008dc:	4770      	bxne	lr
 80008de:	f012 4f7f 	tst.w	r2, #4278190080	; 0xff000000
 80008e2:	d104      	bne.n	80008ee <__addsf3+0x126>
 80008e4:	0040      	lsls	r0, r0, #1
 80008e6:	bf28      	it	cs
 80008e8:	f040 4000 	orrcs.w	r0, r0, #2147483648	; 0x80000000
 80008ec:	4770      	bx	lr
 80008ee:	f112 7200 	adds.w	r2, r2, #33554432	; 0x2000000
 80008f2:	bf3c      	itt	cc
 80008f4:	f500 0000 	addcc.w	r0, r0, #8388608	; 0x800000
 80008f8:	4770      	bxcc	lr
 80008fa:	f000 4300 	and.w	r3, r0, #2147483648	; 0x80000000
 80008fe:	f043 40fe 	orr.w	r0, r3, #2130706432	; 0x7f000000
 8000902:	f440 0000 	orr.w	r0, r0, #8388608	; 0x800000
 8000906:	4770      	bx	lr
 8000908:	ea7f 6222 	mvns.w	r2, r2, asr #24
 800090c:	bf16      	itet	ne
 800090e:	4608      	movne	r0, r1
 8000910:	ea7f 6323 	mvnseq.w	r3, r3, asr #24
 8000914:	4601      	movne	r1, r0
 8000916:	0242      	lsls	r2, r0, #9
 8000918:	bf06      	itte	eq
 800091a:	ea5f 2341 	movseq.w	r3, r1, lsl #9
 800091e:	ea90 0f01 	teqeq	r0, r1
 8000922:	f440 0080 	orrne.w	r0, r0, #4194304	; 0x400000
 8000926:	4770      	bx	lr

08000928 <__aeabi_ui2f>:
 8000928:	f04f 0300 	mov.w	r3, #0
 800092c:	e004      	b.n	8000938 <__aeabi_i2f+0x8>
 800092e:	bf00      	nop

08000930 <__aeabi_i2f>:
 8000930:	f010 4300 	ands.w	r3, r0, #2147483648	; 0x80000000
 8000934:	bf48      	it	mi
 8000936:	4240      	negmi	r0, r0
 8000938:	ea5f 0c00 	movs.w	ip, r0
 800093c:	bf08      	it	eq
 800093e:	4770      	bxeq	lr
 8000940:	f043 4396 	orr.w	r3, r3, #1258291200	; 0x4b000000
 8000944:	4601      	mov	r1, r0
 8000946:	f04f 0000 	mov.w	r0, #0
 800094a:	e01c      	b.n	8000986 <__aeabi_l2f+0x2a>

0800094c <__aeabi_ul2f>:
 800094c:	ea50 0201 	orrs.w	r2, r0, r1
 8000950:	bf08      	it	eq
 8000952:	4770      	bxeq	lr
 8000954:	f04f 0300 	mov.w	r3, #0
 8000958:	e00a      	b.n	8000970 <__aeabi_l2f+0x14>
 800095a:	bf00      	nop

0800095c <__aeabi_l2f>:
 800095c:	ea50 0201 	orrs.w	r2, r0, r1
 8000960:	bf08      	it	eq
 8000962:	4770      	bxeq	lr
 8000964:	f011 4300 	ands.w	r3, r1, #2147483648	; 0x80000000
 8000968:	d502      	bpl.n	8000970 <__aeabi_l2f+0x14>
 800096a:	4240      	negs	r0, r0
 800096c:	eb61 0141 	sbc.w	r1, r1, r1, lsl #1
 8000970:	ea5f 0c01 	movs.w	ip, r1
 8000974:	bf02      	ittt	eq
 8000976:	4684      	moveq	ip, r0
 8000978:	4601      	moveq	r1, r0
 800097a:	2000      	moveq	r0, #0
 800097c:	f043 43b6 	orr.w	r3, r3, #1526726656	; 0x5b000000
 8000980:	bf08      	it	eq
 8000982:	f1a3 5380 	subeq.w	r3, r3, #268435456	; 0x10000000
 8000986:	f5a3 0300 	sub.w	r3, r3, #8388608	; 0x800000
 800098a:	fabc f28c 	clz	r2, ip
 800098e:	3a08      	subs	r2, #8
 8000990:	eba3 53c2 	sub.w	r3, r3, r2, lsl #23
 8000994:	db10      	blt.n	80009b8 <__aeabi_l2f+0x5c>
 8000996:	fa01 fc02 	lsl.w	ip, r1, r2
 800099a:	4463      	add	r3, ip
 800099c:	fa00 fc02 	lsl.w	ip, r0, r2
 80009a0:	f1c2 0220 	rsb	r2, r2, #32
 80009a4:	f1bc 4f00 	cmp.w	ip, #2147483648	; 0x80000000
 80009a8:	fa20 f202 	lsr.w	r2, r0, r2
 80009ac:	eb43 0002 	adc.w	r0, r3, r2
 80009b0:	bf08      	it	eq
 80009b2:	f020 0001 	biceq.w	r0, r0, #1
 80009b6:	4770      	bx	lr
 80009b8:	f102 0220 	add.w	r2, r2, #32
 80009bc:	fa01 fc02 	lsl.w	ip, r1, r2
 80009c0:	f1c2 0220 	rsb	r2, r2, #32
 80009c4:	ea50 004c 	orrs.w	r0, r0, ip, lsl #1
 80009c8:	fa21 f202 	lsr.w	r2, r1, r2
 80009cc:	eb43 0002 	adc.w	r0, r3, r2
 80009d0:	bf08      	it	eq
 80009d2:	ea20 70dc 	biceq.w	r0, r0, ip, lsr #31
 80009d6:	4770      	bx	lr

080009d8 <__gesf2>:
 80009d8:	f04f 3cff 	mov.w	ip, #4294967295
 80009dc:	e006      	b.n	80009ec <__cmpsf2+0x4>
 80009de:	bf00      	nop

080009e0 <__lesf2>:
 80009e0:	f04f 0c01 	mov.w	ip, #1
 80009e4:	e002      	b.n	80009ec <__cmpsf2+0x4>
 80009e6:	bf00      	nop

080009e8 <__cmpsf2>:
 80009e8:	f04f 0c01 	mov.w	ip, #1
 80009ec:	f84d cd04 	str.w	ip, [sp, #-4]!
 80009f0:	ea4f 0240 	mov.w	r2, r0, lsl #1
 80009f4:	ea4f 0341 	mov.w	r3, r1, lsl #1
 80009f8:	ea7f 6c22 	mvns.w	ip, r2, asr #24
 80009fc:	bf18      	it	ne
 80009fe:	ea7f 6c23 	mvnsne.w	ip, r3, asr #24
 8000a02:	d011      	beq.n	8000a28 <__cmpsf2+0x40>
 8000a04:	b001      	add	sp, #4
 8000a06:	ea52 0c53 	orrs.w	ip, r2, r3, lsr #1
 8000a0a:	bf18      	it	ne
 8000a0c:	ea90 0f01 	teqne	r0, r1
 8000a10:	bf58      	it	pl
 8000a12:	ebb2 0003 	subspl.w	r0, r2, r3
 8000a16:	bf88      	it	hi
 8000a18:	17c8      	asrhi	r0, r1, #31
 8000a1a:	bf38      	it	cc
 8000a1c:	ea6f 70e1 	mvncc.w	r0, r1, asr #31
 8000a20:	bf18      	it	ne
 8000a22:	f040 0001 	orrne.w	r0, r0, #1
 8000a26:	4770      	bx	lr
 8000a28:	ea7f 6c22 	mvns.w	ip, r2, asr #24
 8000a2c:	d102      	bne.n	8000a34 <__cmpsf2+0x4c>
 8000a2e:	ea5f 2c40 	movs.w	ip, r0, lsl #9
 8000a32:	d105      	bne.n	8000a40 <__cmpsf2+0x58>
 8000a34:	ea7f 6c23 	mvns.w	ip, r3, asr #24
 8000a38:	d1e4      	bne.n	8000a04 <__cmpsf2+0x1c>
 8000a3a:	ea5f 2c41 	movs.w	ip, r1, lsl #9
 8000a3e:	d0e1      	beq.n	8000a04 <__cmpsf2+0x1c>
 8000a40:	f85d 0b04 	ldr.w	r0, [sp], #4
 8000a44:	4770      	bx	lr
 8000a46:	bf00      	nop

08000a48 <__aeabi_cfrcmple>:
 8000a48:	4684      	mov	ip, r0
 8000a4a:	4608      	mov	r0, r1
 8000a4c:	4661      	mov	r1, ip
 8000a4e:	e7ff      	b.n	8000a50 <__aeabi_cfcmpeq>

08000a50 <__aeabi_cfcmpeq>:
 8000a50:	b50f      	push	{r0, r1, r2, r3, lr}
 8000a52:	f7ff ffc9 	bl	80009e8 <__cmpsf2>
 8000a56:	2800      	cmp	r0, #0
 8000a58:	bf48      	it	mi
 8000a5a:	f110 0f00 	cmnmi.w	r0, #0
 8000a5e:	bd0f      	pop	{r0, r1, r2, r3, pc}

08000a60 <__aeabi_fcmpeq>:
 8000a60:	f84d ed08 	str.w	lr, [sp, #-8]!
 8000a64:	f7ff fff4 	bl	8000a50 <__aeabi_cfcmpeq>
 8000a68:	bf0c      	ite	eq
 8000a6a:	2001      	moveq	r0, #1
 8000a6c:	2000      	movne	r0, #0
 8000a6e:	f85d fb08 	ldr.w	pc, [sp], #8
 8000a72:	bf00      	nop

08000a74 <__aeabi_fcmplt>:
 8000a74:	f84d ed08 	str.w	lr, [sp, #-8]!
 8000a78:	f7ff ffea 	bl	8000a50 <__aeabi_cfcmpeq>
 8000a7c:	bf34      	ite	cc
 8000a7e:	2001      	movcc	r0, #1
 8000a80:	2000      	movcs	r0, #0
 8000a82:	f85d fb08 	ldr.w	pc, [sp], #8
 8000a86:	bf00      	nop

08000a88 <__aeabi_fcmple>:
 8000a88:	f84d ed08 	str.w	lr, [sp, #-8]!
 8000a8c:	f7ff ffe0 	bl	8000a50 <__aeabi_cfcmpeq>
 8000a90:	bf94      	ite	ls
 8000a92:	2001      	movls	r0, #1
 8000a94:	2000      	movhi	r0, #0
 8000a96:	f85d fb08 	ldr.w	pc, [sp], #8
 8000a9a:	bf00      	nop

08000a9c <__aeabi_fcmpge>:
 8000a9c:	f84d ed08 	str.w	lr, [sp, #-8]!
 8000aa0:	f7ff ffd2 	bl	8000a48 <__aeabi_cfrcmple>
 8000aa4:	bf94      	ite	ls
 8000aa6:	2001      	movls	r0, #1
 8000aa8:	2000      	movhi	r0, #0
 8000aaa:	f85d fb08 	ldr.w	pc, [sp], #8
 8000aae:	bf00      	nop

08000ab0 <__aeabi_fcmpgt>:
 8000ab0:	f84d ed08 	str.w	lr, [sp, #-8]!
 8000ab4:	f7ff ffc8 	bl	8000a48 <__aeabi_cfrcmple>
 8000ab8:	bf34      	ite	cc
 8000aba:	2001      	movcc	r0, #1
 8000abc:	2000      	movcs	r0, #0
 8000abe:	f85d fb08 	ldr.w	pc, [sp], #8
 8000ac2:	bf00      	nop

08000ac4 <__aeabi_f2uiz>:
 8000ac4:	0042      	lsls	r2, r0, #1
 8000ac6:	d20e      	bcs.n	8000ae6 <__aeabi_f2uiz+0x22>
 8000ac8:	f1b2 4ffe 	cmp.w	r2, #2130706432	; 0x7f000000
 8000acc:	d30b      	bcc.n	8000ae6 <__aeabi_f2uiz+0x22>
 8000ace:	f04f 039e 	mov.w	r3, #158	; 0x9e
 8000ad2:	ebb3 6212 	subs.w	r2, r3, r2, lsr #24
 8000ad6:	d409      	bmi.n	8000aec <__aeabi_f2uiz+0x28>
 8000ad8:	ea4f 2300 	mov.w	r3, r0, lsl #8
 8000adc:	f043 4300 	orr.w	r3, r3, #2147483648	; 0x80000000
 8000ae0:	fa23 f002 	lsr.w	r0, r3, r2
 8000ae4:	4770      	bx	lr
 8000ae6:	f04f 0000 	mov.w	r0, #0
 8000aea:	4770      	bx	lr
 8000aec:	f112 0f61 	cmn.w	r2, #97	; 0x61
 8000af0:	d101      	bne.n	8000af6 <__aeabi_f2uiz+0x32>
 8000af2:	0242      	lsls	r2, r0, #9
 8000af4:	d102      	bne.n	8000afc <__aeabi_f2uiz+0x38>
 8000af6:	f04f 30ff 	mov.w	r0, #4294967295
 8000afa:	4770      	bx	lr
 8000afc:	f04f 0000 	mov.w	r0, #0
 8000b00:	4770      	bx	lr
 8000b02:	bf00      	nop

08000b04 <mytftset>:
 8000b04:	b57f      	push	{r0, r1, r2, r3, r4, r5, r6, lr}
 8000b06:	2500      	movs	r5, #0
 8000b08:	f44f 63fc 	mov.w	r3, #2016	; 0x7e0
 8000b0c:	e9cd 3501 	strd	r3, r5, [sp, #4]
 8000b10:	4c2a      	ldr	r4, [pc, #168]	; (8000bbc <mytftset+0xb8>)
 8000b12:	4e2b      	ldr	r6, [pc, #172]	; (8000bc0 <mytftset+0xbc>)
 8000b14:	6863      	ldr	r3, [r4, #4]
 8000b16:	2105      	movs	r1, #5
 8000b18:	9300      	str	r3, [sp, #0]
 8000b1a:	6823      	ldr	r3, [r4, #0]
 8000b1c:	2023      	movs	r0, #35	; 0x23
 8000b1e:	4a29      	ldr	r2, [pc, #164]	; (8000bc4 <mytftset+0xc0>)
 8000b20:	f001 f8b4 	bl	8001c8c <ST7789_WriteString>
 8000b24:	8833      	ldrh	r3, [r6, #0]
 8000b26:	9502      	str	r5, [sp, #8]
 8000b28:	9301      	str	r3, [sp, #4]
 8000b2a:	6863      	ldr	r3, [r4, #4]
 8000b2c:	2154      	movs	r1, #84	; 0x54
 8000b2e:	9300      	str	r3, [sp, #0]
 8000b30:	6823      	ldr	r3, [r4, #0]
 8000b32:	203c      	movs	r0, #60	; 0x3c
 8000b34:	4a24      	ldr	r2, [pc, #144]	; (8000bc8 <mytftset+0xc4>)
 8000b36:	f001 f8a9 	bl	8001c8c <ST7789_WriteString>
 8000b3a:	8833      	ldrh	r3, [r6, #0]
 8000b3c:	9502      	str	r5, [sp, #8]
 8000b3e:	9301      	str	r3, [sp, #4]
 8000b40:	6863      	ldr	r3, [r4, #4]
 8000b42:	218c      	movs	r1, #140	; 0x8c
 8000b44:	9300      	str	r3, [sp, #0]
 8000b46:	6823      	ldr	r3, [r4, #0]
 8000b48:	2041      	movs	r0, #65	; 0x41
 8000b4a:	4a20      	ldr	r2, [pc, #128]	; (8000bcc <mytftset+0xc8>)
 8000b4c:	f001 f89e 	bl	8001c8c <ST7789_WriteString>
 8000b50:	f64f 74ff 	movw	r4, #65535	; 0xffff
 8000b54:	2102      	movs	r1, #2
 8000b56:	234e      	movs	r3, #78	; 0x4e
 8000b58:	4608      	mov	r0, r1
 8000b5a:	22ed      	movs	r2, #237	; 0xed
 8000b5c:	9400      	str	r4, [sp, #0]
 8000b5e:	f001 f809 	bl	8001b74 <ST7789_DrawRectangle>
 8000b62:	2101      	movs	r1, #1
 8000b64:	234f      	movs	r3, #79	; 0x4f
 8000b66:	4608      	mov	r0, r1
 8000b68:	22ee      	movs	r2, #238	; 0xee
 8000b6a:	9400      	str	r4, [sp, #0]
 8000b6c:	f001 f802 	bl	8001b74 <ST7789_DrawRectangle>
 8000b70:	4629      	mov	r1, r5
 8000b72:	4628      	mov	r0, r5
 8000b74:	2350      	movs	r3, #80	; 0x50
 8000b76:	22ef      	movs	r2, #239	; 0xef
 8000b78:	9400      	str	r4, [sp, #0]
 8000b7a:	f000 fffb 	bl	8001b74 <ST7789_DrawRectangle>
 8000b7e:	23ef      	movs	r3, #239	; 0xef
 8000b80:	4628      	mov	r0, r5
 8000b82:	461a      	mov	r2, r3
 8000b84:	2151      	movs	r1, #81	; 0x51
 8000b86:	9400      	str	r4, [sp, #0]
 8000b88:	f000 fff4 	bl	8001b74 <ST7789_DrawRectangle>
 8000b8c:	23ee      	movs	r3, #238	; 0xee
 8000b8e:	2151      	movs	r1, #81	; 0x51
 8000b90:	461a      	mov	r2, r3
 8000b92:	2001      	movs	r0, #1
 8000b94:	9400      	str	r4, [sp, #0]
 8000b96:	f000 ffed 	bl	8001b74 <ST7789_DrawRectangle>
 8000b9a:	23ed      	movs	r3, #237	; 0xed
 8000b9c:	2151      	movs	r1, #81	; 0x51
 8000b9e:	461a      	mov	r2, r3
 8000ba0:	2002      	movs	r0, #2
 8000ba2:	9400      	str	r4, [sp, #0]
 8000ba4:	f000 ffe6 	bl	8001b74 <ST7789_DrawRectangle>
 8000ba8:	2201      	movs	r2, #1
 8000baa:	f44f 5180 	mov.w	r1, #4096	; 0x1000
 8000bae:	4808      	ldr	r0, [pc, #32]	; (8000bd0 <mytftset+0xcc>)
 8000bb0:	b004      	add	sp, #16
 8000bb2:	e8bd 4070 	ldmia.w	sp!, {r4, r5, r6, lr}
 8000bb6:	f001 be2b 	b.w	8002810 <HAL_GPIO_WritePin>
 8000bba:	bf00      	nop
 8000bbc:	20000000 	.word	0x20000000
 8000bc0:	20000008 	.word	0x20000008
 8000bc4:	080053da 	.word	0x080053da
 8000bc8:	080053e6 	.word	0x080053e6
 8000bcc:	080053ef 	.word	0x080053ef
 8000bd0:	40010c00 	.word	0x40010c00

08000bd4 <encoder>:
 8000bd4:	b5f0      	push	{r4, r5, r6, r7, lr}
 8000bd6:	4da4      	ldr	r5, [pc, #656]	; (8000e68 <encoder+0x294>)
 8000bd8:	b089      	sub	sp, #36	; 0x24
 8000bda:	782b      	ldrb	r3, [r5, #0]
 8000bdc:	2b01      	cmp	r3, #1
 8000bde:	bf01      	itttt	eq
 8000be0:	2300      	moveq	r3, #0
 8000be2:	f04f 4280 	moveq.w	r2, #1073741824	; 0x40000000
 8000be6:	6253      	streq	r3, [r2, #36]	; 0x24
 8000be8:	702b      	strbeq	r3, [r5, #0]
 8000bea:	f04f 4380 	mov.w	r3, #1073741824	; 0x40000000
 8000bee:	6a5c      	ldr	r4, [r3, #36]	; 0x24
 8000bf0:	4b9e      	ldr	r3, [pc, #632]	; (8000e6c <encoder+0x298>)
 8000bf2:	681a      	ldr	r2, [r3, #0]
 8000bf4:	42a2      	cmp	r2, r4
 8000bf6:	f000 8082 	beq.w	8000cfe <encoder+0x12a>
 8000bfa:	2201      	movs	r2, #1
 8000bfc:	601c      	str	r4, [r3, #0]
 8000bfe:	4e9c      	ldr	r6, [pc, #624]	; (8000e70 <encoder+0x29c>)
 8000c00:	4b9c      	ldr	r3, [pc, #624]	; (8000e74 <encoder+0x2a0>)
 8000c02:	701a      	strb	r2, [r3, #0]
 8000c04:	7833      	ldrb	r3, [r6, #0]
 8000c06:	bb33      	cbnz	r3, 8000c56 <encoder+0x82>
 8000c08:	4b9b      	ldr	r3, [pc, #620]	; (8000e78 <encoder+0x2a4>)
 8000c0a:	2110      	movs	r1, #16
 8000c0c:	681b      	ldr	r3, [r3, #0]
 8000c0e:	eb0d 0001 	add.w	r0, sp, r1
 8000c12:	441c      	add	r4, r3
 8000c14:	4b99      	ldr	r3, [pc, #612]	; (8000e7c <encoder+0x2a8>)
 8000c16:	681b      	ldr	r3, [r3, #0]
 8000c18:	fb94 f4f3 	sdiv	r4, r4, r3
 8000c1c:	435c      	muls	r4, r3
 8000c1e:	4b98      	ldr	r3, [pc, #608]	; (8000e80 <encoder+0x2ac>)
 8000c20:	681b      	ldr	r3, [r3, #0]
 8000c22:	42a3      	cmp	r3, r4
 8000c24:	4b97      	ldr	r3, [pc, #604]	; (8000e84 <encoder+0x2b0>)
 8000c26:	bfb8      	it	lt
 8000c28:	702a      	strblt	r2, [r5, #0]
 8000c2a:	681b      	ldr	r3, [r3, #0]
 8000c2c:	4a96      	ldr	r2, [pc, #600]	; (8000e88 <encoder+0x2b4>)
 8000c2e:	4423      	add	r3, r4
 8000c30:	6013      	str	r3, [r2, #0]
 8000c32:	4623      	mov	r3, r4
 8000c34:	4a95      	ldr	r2, [pc, #596]	; (8000e8c <encoder+0x2b8>)
 8000c36:	f002 fdad 	bl	8003794 <sniprintf>
 8000c3a:	2200      	movs	r2, #0
 8000c3c:	9202      	str	r2, [sp, #8]
 8000c3e:	4a94      	ldr	r2, [pc, #592]	; (8000e90 <encoder+0x2bc>)
 8000c40:	4b94      	ldr	r3, [pc, #592]	; (8000e94 <encoder+0x2c0>)
 8000c42:	8812      	ldrh	r2, [r2, #0]
 8000c44:	2123      	movs	r1, #35	; 0x23
 8000c46:	9201      	str	r2, [sp, #4]
 8000c48:	685a      	ldr	r2, [r3, #4]
 8000c4a:	205a      	movs	r0, #90	; 0x5a
 8000c4c:	9200      	str	r2, [sp, #0]
 8000c4e:	681b      	ldr	r3, [r3, #0]
 8000c50:	aa04      	add	r2, sp, #16
 8000c52:	f001 f81b 	bl	8001c8c <ST7789_WriteString>
 8000c56:	7832      	ldrb	r2, [r6, #0]
 8000c58:	2a01      	cmp	r2, #1
 8000c5a:	d126      	bne.n	8000caa <encoder+0xd6>
 8000c5c:	4b8e      	ldr	r3, [pc, #568]	; (8000e98 <encoder+0x2c4>)
 8000c5e:	2110      	movs	r1, #16
 8000c60:	681b      	ldr	r3, [r3, #0]
 8000c62:	eb0d 0001 	add.w	r0, sp, r1
 8000c66:	441c      	add	r4, r3
 8000c68:	4b84      	ldr	r3, [pc, #528]	; (8000e7c <encoder+0x2a8>)
 8000c6a:	681b      	ldr	r3, [r3, #0]
 8000c6c:	fb94 f4f3 	sdiv	r4, r4, r3
 8000c70:	435c      	muls	r4, r3
 8000c72:	4b8a      	ldr	r3, [pc, #552]	; (8000e9c <encoder+0x2c8>)
 8000c74:	681b      	ldr	r3, [r3, #0]
 8000c76:	42a3      	cmp	r3, r4
 8000c78:	4b89      	ldr	r3, [pc, #548]	; (8000ea0 <encoder+0x2cc>)
 8000c7a:	bfb8      	it	lt
 8000c7c:	702a      	strblt	r2, [r5, #0]
 8000c7e:	681b      	ldr	r3, [r3, #0]
 8000c80:	4a88      	ldr	r2, [pc, #544]	; (8000ea4 <encoder+0x2d0>)
 8000c82:	4423      	add	r3, r4
 8000c84:	6013      	str	r3, [r2, #0]
 8000c86:	4623      	mov	r3, r4
 8000c88:	4a80      	ldr	r2, [pc, #512]	; (8000e8c <encoder+0x2b8>)
 8000c8a:	f002 fd83 	bl	8003794 <sniprintf>
 8000c8e:	2200      	movs	r2, #0
 8000c90:	9202      	str	r2, [sp, #8]
 8000c92:	4a7f      	ldr	r2, [pc, #508]	; (8000e90 <encoder+0x2bc>)
 8000c94:	4b7f      	ldr	r3, [pc, #508]	; (8000e94 <encoder+0x2c0>)
 8000c96:	8812      	ldrh	r2, [r2, #0]
 8000c98:	2173      	movs	r1, #115	; 0x73
 8000c9a:	9201      	str	r2, [sp, #4]
 8000c9c:	685a      	ldr	r2, [r3, #4]
 8000c9e:	205a      	movs	r0, #90	; 0x5a
 8000ca0:	9200      	str	r2, [sp, #0]
 8000ca2:	681b      	ldr	r3, [r3, #0]
 8000ca4:	aa04      	add	r2, sp, #16
 8000ca6:	f000 fff1 	bl	8001c8c <ST7789_WriteString>
 8000caa:	7833      	ldrb	r3, [r6, #0]
 8000cac:	2b02      	cmp	r3, #2
 8000cae:	d126      	bne.n	8000cfe <encoder+0x12a>
 8000cb0:	4b7d      	ldr	r3, [pc, #500]	; (8000ea8 <encoder+0x2d4>)
 8000cb2:	4a72      	ldr	r2, [pc, #456]	; (8000e7c <encoder+0x2a8>)
 8000cb4:	681b      	ldr	r3, [r3, #0]
 8000cb6:	4423      	add	r3, r4
 8000cb8:	6814      	ldr	r4, [r2, #0]
 8000cba:	fb93 f3f4 	sdiv	r3, r3, r4
 8000cbe:	4363      	muls	r3, r4
 8000cc0:	2b64      	cmp	r3, #100	; 0x64
 8000cc2:	bfc4      	itt	gt
 8000cc4:	2201      	movgt	r2, #1
 8000cc6:	702a      	strbgt	r2, [r5, #0]
 8000cc8:	4a78      	ldr	r2, [pc, #480]	; (8000eac <encoder+0x2d8>)
 8000cca:	b299      	uxth	r1, r3
 8000ccc:	6013      	str	r3, [r2, #0]
 8000cce:	223c      	movs	r2, #60	; 0x3c
 8000cd0:	434a      	muls	r2, r1
 8000cd2:	4977      	ldr	r1, [pc, #476]	; (8000eb0 <encoder+0x2dc>)
 8000cd4:	634a      	str	r2, [r1, #52]	; 0x34
 8000cd6:	2110      	movs	r1, #16
 8000cd8:	4a76      	ldr	r2, [pc, #472]	; (8000eb4 <encoder+0x2e0>)
 8000cda:	eb0d 0001 	add.w	r0, sp, r1
 8000cde:	f002 fd59 	bl	8003794 <sniprintf>
 8000ce2:	2200      	movs	r2, #0
 8000ce4:	9202      	str	r2, [sp, #8]
 8000ce6:	4a6a      	ldr	r2, [pc, #424]	; (8000e90 <encoder+0x2bc>)
 8000ce8:	4b6a      	ldr	r3, [pc, #424]	; (8000e94 <encoder+0x2c0>)
 8000cea:	8812      	ldrh	r2, [r2, #0]
 8000cec:	21af      	movs	r1, #175	; 0xaf
 8000cee:	9201      	str	r2, [sp, #4]
 8000cf0:	685a      	ldr	r2, [r3, #4]
 8000cf2:	205a      	movs	r0, #90	; 0x5a
 8000cf4:	9200      	str	r2, [sp, #0]
 8000cf6:	681b      	ldr	r3, [r3, #0]
 8000cf8:	aa04      	add	r2, sp, #16
 8000cfa:	f000 ffc7 	bl	8001c8c <ST7789_WriteString>
 8000cfe:	f001 f9c1 	bl	8002084 <HAL_GetTick>
 8000d02:	2110      	movs	r1, #16
 8000d04:	4604      	mov	r4, r0
 8000d06:	486c      	ldr	r0, [pc, #432]	; (8000eb8 <encoder+0x2e4>)
 8000d08:	f001 fd7c 	bl	8002804 <HAL_GPIO_ReadPin>
 8000d0c:	2800      	cmp	r0, #0
 8000d0e:	d16a      	bne.n	8000de6 <encoder+0x212>
 8000d10:	4d6a      	ldr	r5, [pc, #424]	; (8000ebc <encoder+0x2e8>)
 8000d12:	4b6b      	ldr	r3, [pc, #428]	; (8000ec0 <encoder+0x2ec>)
 8000d14:	7828      	ldrb	r0, [r5, #0]
 8000d16:	b950      	cbnz	r0, 8000d2e <encoder+0x15a>
 8000d18:	496a      	ldr	r1, [pc, #424]	; (8000ec4 <encoder+0x2f0>)
 8000d1a:	680a      	ldr	r2, [r1, #0]
 8000d1c:	1aa2      	subs	r2, r4, r2
 8000d1e:	2a32      	cmp	r2, #50	; 0x32
 8000d20:	d905      	bls.n	8000d2e <encoder+0x15a>
 8000d22:	2201      	movs	r2, #1
 8000d24:	7018      	strb	r0, [r3, #0]
 8000d26:	702a      	strb	r2, [r5, #0]
 8000d28:	600c      	str	r4, [r1, #0]
 8000d2a:	b009      	add	sp, #36	; 0x24
 8000d2c:	bdf0      	pop	{r4, r5, r6, r7, pc}
 8000d2e:	781a      	ldrb	r2, [r3, #0]
 8000d30:	2a00      	cmp	r2, #0
 8000d32:	d1fa      	bne.n	8000d2a <encoder+0x156>
 8000d34:	4a63      	ldr	r2, [pc, #396]	; (8000ec4 <encoder+0x2f0>)
 8000d36:	6810      	ldr	r0, [r2, #0]
 8000d38:	1a24      	subs	r4, r4, r0
 8000d3a:	f5b4 7fc8 	cmp.w	r4, #400	; 0x190
 8000d3e:	d9f4      	bls.n	8000d2a <encoder+0x156>
 8000d40:	2101      	movs	r1, #1
 8000d42:	4c4b      	ldr	r4, [pc, #300]	; (8000e70 <encoder+0x29c>)
 8000d44:	7019      	strb	r1, [r3, #0]
 8000d46:	7825      	ldrb	r5, [r4, #0]
 8000d48:	b9d5      	cbnz	r5, 8000d80 <encoder+0x1ac>
 8000d4a:	4b5f      	ldr	r3, [pc, #380]	; (8000ec8 <encoder+0x2f4>)
 8000d4c:	7818      	ldrb	r0, [r3, #0]
 8000d4e:	4288      	cmp	r0, r1
 8000d50:	d13c      	bne.n	8000dcc <encoder+0x1f8>
 8000d52:	f64f 76ff 	movw	r6, #65535	; 0xffff
 8000d56:	701d      	strb	r5, [r3, #0]
 8000d58:	22ee      	movs	r2, #238	; 0xee
 8000d5a:	234f      	movs	r3, #79	; 0x4f
 8000d5c:	4601      	mov	r1, r0
 8000d5e:	9600      	str	r6, [sp, #0]
 8000d60:	f000 ff08 	bl	8001b74 <ST7789_DrawRectangle>
 8000d64:	9600      	str	r6, [sp, #0]
 8000d66:	2350      	movs	r3, #80	; 0x50
 8000d68:	22ee      	movs	r2, #238	; 0xee
 8000d6a:	4629      	mov	r1, r5
 8000d6c:	4628      	mov	r0, r5
 8000d6e:	f000 ff01 	bl	8001b74 <ST7789_DrawRectangle>
 8000d72:	2102      	movs	r1, #2
 8000d74:	234e      	movs	r3, #78	; 0x4e
 8000d76:	22ed      	movs	r2, #237	; 0xed
 8000d78:	4608      	mov	r0, r1
 8000d7a:	9600      	str	r6, [sp, #0]
 8000d7c:	f000 fefa 	bl	8001b74 <ST7789_DrawRectangle>
 8000d80:	7823      	ldrb	r3, [r4, #0]
 8000d82:	3b01      	subs	r3, #1
 8000d84:	2b01      	cmp	r3, #1
 8000d86:	d8d0      	bhi.n	8000d2a <encoder+0x156>
 8000d88:	4b50      	ldr	r3, [pc, #320]	; (8000ecc <encoder+0x2f8>)
 8000d8a:	2151      	movs	r1, #81	; 0x51
 8000d8c:	7818      	ldrb	r0, [r3, #0]
 8000d8e:	2801      	cmp	r0, #1
 8000d90:	bf13      	iteet	ne
 8000d92:	2001      	movne	r0, #1
 8000d94:	2500      	moveq	r5, #0
 8000d96:	f64f 74ff 	movweq	r4, #65535	; 0xffff
 8000d9a:	f64f 1465 	movwne	r4, #63845	; 0xf965
 8000d9e:	bf14      	ite	ne
 8000da0:	7018      	strbne	r0, [r3, #0]
 8000da2:	701d      	strbeq	r5, [r3, #0]
 8000da4:	23ee      	movs	r3, #238	; 0xee
 8000da6:	9400      	str	r4, [sp, #0]
 8000da8:	461a      	mov	r2, r3
 8000daa:	f000 fee3 	bl	8001b74 <ST7789_DrawRectangle>
 8000dae:	23ef      	movs	r3, #239	; 0xef
 8000db0:	2151      	movs	r1, #81	; 0x51
 8000db2:	461a      	mov	r2, r3
 8000db4:	2000      	movs	r0, #0
 8000db6:	9400      	str	r4, [sp, #0]
 8000db8:	f000 fedc 	bl	8001b74 <ST7789_DrawRectangle>
 8000dbc:	23ed      	movs	r3, #237	; 0xed
 8000dbe:	2151      	movs	r1, #81	; 0x51
 8000dc0:	461a      	mov	r2, r3
 8000dc2:	2002      	movs	r0, #2
 8000dc4:	9400      	str	r4, [sp, #0]
 8000dc6:	f000 fed5 	bl	8001b74 <ST7789_DrawRectangle>
 8000dca:	e7ae      	b.n	8000d2a <encoder+0x156>
 8000dcc:	f64f 1665 	movw	r6, #63845	; 0xf965
 8000dd0:	7019      	strb	r1, [r3, #0]
 8000dd2:	22ee      	movs	r2, #238	; 0xee
 8000dd4:	234f      	movs	r3, #79	; 0x4f
 8000dd6:	4608      	mov	r0, r1
 8000dd8:	9600      	str	r6, [sp, #0]
 8000dda:	f000 fecb 	bl	8001b74 <ST7789_DrawRectangle>
 8000dde:	f64f 031f 	movw	r3, #63519	; 0xf81f
 8000de2:	9300      	str	r3, [sp, #0]
 8000de4:	e7bf      	b.n	8000d66 <encoder+0x192>
 8000de6:	2801      	cmp	r0, #1
 8000de8:	d19f      	bne.n	8000d2a <encoder+0x156>
 8000dea:	4934      	ldr	r1, [pc, #208]	; (8000ebc <encoder+0x2e8>)
 8000dec:	780b      	ldrb	r3, [r1, #0]
 8000dee:	2b00      	cmp	r3, #0
 8000df0:	d09b      	beq.n	8000d2a <encoder+0x156>
 8000df2:	4a34      	ldr	r2, [pc, #208]	; (8000ec4 <encoder+0x2f0>)
 8000df4:	6813      	ldr	r3, [r2, #0]
 8000df6:	1ae3      	subs	r3, r4, r3
 8000df8:	2b32      	cmp	r3, #50	; 0x32
 8000dfa:	d996      	bls.n	8000d2a <encoder+0x156>
 8000dfc:	2300      	movs	r3, #0
 8000dfe:	700b      	strb	r3, [r1, #0]
 8000e00:	4b2f      	ldr	r3, [pc, #188]	; (8000ec0 <encoder+0x2ec>)
 8000e02:	6014      	str	r4, [r2, #0]
 8000e04:	781a      	ldrb	r2, [r3, #0]
 8000e06:	2a00      	cmp	r2, #0
 8000e08:	d18f      	bne.n	8000d2a <encoder+0x156>
 8000e0a:	4c19      	ldr	r4, [pc, #100]	; (8000e70 <encoder+0x29c>)
 8000e0c:	7823      	ldrb	r3, [r4, #0]
 8000e0e:	3301      	adds	r3, #1
 8000e10:	b2db      	uxtb	r3, r3
 8000e12:	2b03      	cmp	r3, #3
 8000e14:	7023      	strb	r3, [r4, #0]
 8000e16:	d161      	bne.n	8000edc <encoder+0x308>
 8000e18:	7022      	strb	r2, [r4, #0]
 8000e1a:	2600      	movs	r6, #0
 8000e1c:	f44f 63fc 	mov.w	r3, #2016	; 0x7e0
 8000e20:	e9cd 3601 	strd	r3, r6, [sp, #4]
 8000e24:	4d1b      	ldr	r5, [pc, #108]	; (8000e94 <encoder+0x2c0>)
 8000e26:	4f1a      	ldr	r7, [pc, #104]	; (8000e90 <encoder+0x2bc>)
 8000e28:	686b      	ldr	r3, [r5, #4]
 8000e2a:	2105      	movs	r1, #5
 8000e2c:	9300      	str	r3, [sp, #0]
 8000e2e:	682b      	ldr	r3, [r5, #0]
 8000e30:	2023      	movs	r0, #35	; 0x23
 8000e32:	4a27      	ldr	r2, [pc, #156]	; (8000ed0 <encoder+0x2fc>)
 8000e34:	f000 ff2a 	bl	8001c8c <ST7789_WriteString>
 8000e38:	883b      	ldrh	r3, [r7, #0]
 8000e3a:	9602      	str	r6, [sp, #8]
 8000e3c:	9301      	str	r3, [sp, #4]
 8000e3e:	686b      	ldr	r3, [r5, #4]
 8000e40:	2154      	movs	r1, #84	; 0x54
 8000e42:	9300      	str	r3, [sp, #0]
 8000e44:	682b      	ldr	r3, [r5, #0]
 8000e46:	203c      	movs	r0, #60	; 0x3c
 8000e48:	4a22      	ldr	r2, [pc, #136]	; (8000ed4 <encoder+0x300>)
 8000e4a:	f000 ff1f 	bl	8001c8c <ST7789_WriteString>
 8000e4e:	883b      	ldrh	r3, [r7, #0]
 8000e50:	9602      	str	r6, [sp, #8]
 8000e52:	9301      	str	r3, [sp, #4]
 8000e54:	686b      	ldr	r3, [r5, #4]
 8000e56:	218c      	movs	r1, #140	; 0x8c
 8000e58:	9300      	str	r3, [sp, #0]
 8000e5a:	2041      	movs	r0, #65	; 0x41
 8000e5c:	682b      	ldr	r3, [r5, #0]
 8000e5e:	4a1e      	ldr	r2, [pc, #120]	; (8000ed8 <encoder+0x304>)
 8000e60:	f000 ff14 	bl	8001c8c <ST7789_WriteString>
 8000e64:	e03c      	b.n	8000ee0 <encoder+0x30c>
 8000e66:	bf00      	nop
 8000e68:	200000d0 	.word	0x200000d0
 8000e6c:	200000cc 	.word	0x200000cc
 8000e70:	200000c5 	.word	0x200000c5
 8000e74:	200000d2 	.word	0x200000d2
 8000e78:	20000020 	.word	0x20000020
 8000e7c:	2000000c 	.word	0x2000000c
 8000e80:	20000014 	.word	0x20000014
 8000e84:	20000024 	.word	0x20000024
 8000e88:	20000030 	.word	0x20000030
 8000e8c:	080053f7 	.word	0x080053f7
 8000e90:	20000008 	.word	0x20000008
 8000e94:	20000000 	.word	0x20000000
 8000e98:	2000001c 	.word	0x2000001c
 8000e9c:	20000010 	.word	0x20000010
 8000ea0:	200000c8 	.word	0x200000c8
 8000ea4:	2000002c 	.word	0x2000002c
 8000ea8:	20000018 	.word	0x20000018
 8000eac:	20000028 	.word	0x20000028
 8000eb0:	40000800 	.word	0x40000800
 8000eb4:	080053fa 	.word	0x080053fa
 8000eb8:	40010c00 	.word	0x40010c00
 8000ebc:	200000d1 	.word	0x200000d1
 8000ec0:	200000c4 	.word	0x200000c4
 8000ec4:	200000d4 	.word	0x200000d4
 8000ec8:	200000c6 	.word	0x200000c6
 8000ecc:	200000c2 	.word	0x200000c2
 8000ed0:	080053da 	.word	0x080053da
 8000ed4:	080053e6 	.word	0x080053e6
 8000ed8:	080053ef 	.word	0x080053ef
 8000edc:	2b00      	cmp	r3, #0
 8000ede:	d09c      	beq.n	8000e1a <encoder+0x246>
 8000ee0:	7823      	ldrb	r3, [r4, #0]
 8000ee2:	2b01      	cmp	r3, #1
 8000ee4:	d124      	bne.n	8000f30 <encoder+0x35c>
 8000ee6:	2600      	movs	r6, #0
 8000ee8:	4f26      	ldr	r7, [pc, #152]	; (8000f84 <encoder+0x3b0>)
 8000eea:	4d27      	ldr	r5, [pc, #156]	; (8000f88 <encoder+0x3b4>)
 8000eec:	883b      	ldrh	r3, [r7, #0]
 8000eee:	9602      	str	r6, [sp, #8]
 8000ef0:	9301      	str	r3, [sp, #4]
 8000ef2:	686b      	ldr	r3, [r5, #4]
 8000ef4:	2105      	movs	r1, #5
 8000ef6:	9300      	str	r3, [sp, #0]
 8000ef8:	2023      	movs	r0, #35	; 0x23
 8000efa:	682b      	ldr	r3, [r5, #0]
 8000efc:	4a23      	ldr	r2, [pc, #140]	; (8000f8c <encoder+0x3b8>)
 8000efe:	f000 fec5 	bl	8001c8c <ST7789_WriteString>
 8000f02:	f44f 63fc 	mov.w	r3, #2016	; 0x7e0
 8000f06:	9602      	str	r6, [sp, #8]
 8000f08:	9301      	str	r3, [sp, #4]
 8000f0a:	686b      	ldr	r3, [r5, #4]
 8000f0c:	2154      	movs	r1, #84	; 0x54
 8000f0e:	9300      	str	r3, [sp, #0]
 8000f10:	203c      	movs	r0, #60	; 0x3c
 8000f12:	682b      	ldr	r3, [r5, #0]
 8000f14:	4a1e      	ldr	r2, [pc, #120]	; (8000f90 <encoder+0x3bc>)
 8000f16:	f000 feb9 	bl	8001c8c <ST7789_WriteString>
 8000f1a:	883b      	ldrh	r3, [r7, #0]
 8000f1c:	9602      	str	r6, [sp, #8]
 8000f1e:	9301      	str	r3, [sp, #4]
 8000f20:	686b      	ldr	r3, [r5, #4]
 8000f22:	218c      	movs	r1, #140	; 0x8c
 8000f24:	9300      	str	r3, [sp, #0]
 8000f26:	2041      	movs	r0, #65	; 0x41
 8000f28:	682b      	ldr	r3, [r5, #0]
 8000f2a:	4a1a      	ldr	r2, [pc, #104]	; (8000f94 <encoder+0x3c0>)
 8000f2c:	f000 feae 	bl	8001c8c <ST7789_WriteString>
 8000f30:	7823      	ldrb	r3, [r4, #0]
 8000f32:	2b02      	cmp	r3, #2
 8000f34:	f47f aef9 	bne.w	8000d2a <encoder+0x156>
 8000f38:	2500      	movs	r5, #0
 8000f3a:	4e12      	ldr	r6, [pc, #72]	; (8000f84 <encoder+0x3b0>)
 8000f3c:	9502      	str	r5, [sp, #8]
 8000f3e:	8833      	ldrh	r3, [r6, #0]
 8000f40:	4c11      	ldr	r4, [pc, #68]	; (8000f88 <encoder+0x3b4>)
 8000f42:	9301      	str	r3, [sp, #4]
 8000f44:	6863      	ldr	r3, [r4, #4]
 8000f46:	2105      	movs	r1, #5
 8000f48:	9300      	str	r3, [sp, #0]
 8000f4a:	6823      	ldr	r3, [r4, #0]
 8000f4c:	2023      	movs	r0, #35	; 0x23
 8000f4e:	4a0f      	ldr	r2, [pc, #60]	; (8000f8c <encoder+0x3b8>)
 8000f50:	f000 fe9c 	bl	8001c8c <ST7789_WriteString>
 8000f54:	9502      	str	r5, [sp, #8]
 8000f56:	8833      	ldrh	r3, [r6, #0]
 8000f58:	2154      	movs	r1, #84	; 0x54
 8000f5a:	9301      	str	r3, [sp, #4]
 8000f5c:	6863      	ldr	r3, [r4, #4]
 8000f5e:	203c      	movs	r0, #60	; 0x3c
 8000f60:	9300      	str	r3, [sp, #0]
 8000f62:	6823      	ldr	r3, [r4, #0]
 8000f64:	4a0a      	ldr	r2, [pc, #40]	; (8000f90 <encoder+0x3bc>)
 8000f66:	f000 fe91 	bl	8001c8c <ST7789_WriteString>
 8000f6a:	f44f 63fc 	mov.w	r3, #2016	; 0x7e0
 8000f6e:	9502      	str	r5, [sp, #8]
 8000f70:	9301      	str	r3, [sp, #4]
 8000f72:	6863      	ldr	r3, [r4, #4]
 8000f74:	218c      	movs	r1, #140	; 0x8c
 8000f76:	9300      	str	r3, [sp, #0]
 8000f78:	2041      	movs	r0, #65	; 0x41
 8000f7a:	6823      	ldr	r3, [r4, #0]
 8000f7c:	4a05      	ldr	r2, [pc, #20]	; (8000f94 <encoder+0x3c0>)
 8000f7e:	f000 fe85 	bl	8001c8c <ST7789_WriteString>
 8000f82:	e6d2      	b.n	8000d2a <encoder+0x156>
 8000f84:	20000008 	.word	0x20000008
 8000f88:	20000000 	.word	0x20000000
 8000f8c:	080053da 	.word	0x080053da
 8000f90:	080053e6 	.word	0x080053e6
 8000f94:	080053ef 	.word	0x080053ef

08000f98 <fenreset>:
 8000f98:	b508      	push	{r3, lr}
 8000f9a:	2200      	movs	r2, #0
 8000f9c:	f44f 7100 	mov.w	r1, #512	; 0x200
 8000fa0:	4805      	ldr	r0, [pc, #20]	; (8000fb8 <fenreset+0x20>)
 8000fa2:	f001 fc35 	bl	8002810 <HAL_GPIO_WritePin>
 8000fa6:	e8bd 4008 	ldmia.w	sp!, {r3, lr}
 8000faa:	2201      	movs	r2, #1
 8000fac:	f44f 5100 	mov.w	r1, #8192	; 0x2000
 8000fb0:	4802      	ldr	r0, [pc, #8]	; (8000fbc <fenreset+0x24>)
 8000fb2:	f001 bc2d 	b.w	8002810 <HAL_GPIO_WritePin>
 8000fb6:	bf00      	nop
 8000fb8:	40010c00 	.word	0x40010c00
 8000fbc:	40011000 	.word	0x40011000

08000fc0 <TermoControl>:
 8000fc0:	b570      	push	{r4, r5, r6, lr}
 8000fc2:	4c49      	ldr	r4, [pc, #292]	; (80010e8 <TermoControl+0x128>)
 8000fc4:	7825      	ldrb	r5, [r4, #0]
 8000fc6:	2d01      	cmp	r5, #1
 8000fc8:	d115      	bne.n	8000ff6 <TermoControl+0x36>
 8000fca:	4b48      	ldr	r3, [pc, #288]	; (80010ec <TermoControl+0x12c>)
 8000fcc:	6818      	ldr	r0, [r3, #0]
 8000fce:	f7ff fcaf 	bl	8000930 <__aeabi_i2f>
 8000fd2:	4b47      	ldr	r3, [pc, #284]	; (80010f0 <TermoControl+0x130>)
 8000fd4:	6819      	ldr	r1, [r3, #0]
 8000fd6:	f7ff fd57 	bl	8000a88 <__aeabi_fcmple>
 8000fda:	4602      	mov	r2, r0
 8000fdc:	2800      	cmp	r0, #0
 8000fde:	d06e      	beq.n	80010be <TermoControl+0xfe>
 8000fe0:	462a      	mov	r2, r5
 8000fe2:	2120      	movs	r1, #32
 8000fe4:	4843      	ldr	r0, [pc, #268]	; (80010f4 <TermoControl+0x134>)
 8000fe6:	f001 fc13 	bl	8002810 <HAL_GPIO_WritePin>
 8000fea:	2200      	movs	r2, #0
 8000fec:	f44f 7180 	mov.w	r1, #256	; 0x100
 8000ff0:	4841      	ldr	r0, [pc, #260]	; (80010f8 <TermoControl+0x138>)
 8000ff2:	f001 fc0d 	bl	8002810 <HAL_GPIO_WritePin>
 8000ff6:	7824      	ldrb	r4, [r4, #0]
 8000ff8:	b954      	cbnz	r4, 8001010 <TermoControl+0x50>
 8000ffa:	2201      	movs	r2, #1
 8000ffc:	2120      	movs	r1, #32
 8000ffe:	483d      	ldr	r0, [pc, #244]	; (80010f4 <TermoControl+0x134>)
 8001000:	f001 fc06 	bl	8002810 <HAL_GPIO_WritePin>
 8001004:	4622      	mov	r2, r4
 8001006:	f44f 7180 	mov.w	r1, #256	; 0x100
 800100a:	483b      	ldr	r0, [pc, #236]	; (80010f8 <TermoControl+0x138>)
 800100c:	f001 fc00 	bl	8002810 <HAL_GPIO_WritePin>
 8001010:	4e3a      	ldr	r6, [pc, #232]	; (80010fc <TermoControl+0x13c>)
 8001012:	7834      	ldrb	r4, [r6, #0]
 8001014:	2c00      	cmp	r4, #0
 8001016:	d130      	bne.n	800107a <TermoControl+0xba>
 8001018:	f7ff ffbe 	bl	8000f98 <fenreset>
 800101c:	4b38      	ldr	r3, [pc, #224]	; (8001100 <TermoControl+0x140>)
 800101e:	701c      	strb	r4, [r3, #0]
 8001020:	4b38      	ldr	r3, [pc, #224]	; (8001104 <TermoControl+0x144>)
 8001022:	681d      	ldr	r5, [r3, #0]
 8001024:	4b38      	ldr	r3, [pc, #224]	; (8001108 <TermoControl+0x148>)
 8001026:	f105 001e 	add.w	r0, r5, #30
 800102a:	681c      	ldr	r4, [r3, #0]
 800102c:	f7ff fc80 	bl	8000930 <__aeabi_i2f>
 8001030:	4621      	mov	r1, r4
 8001032:	f7ff fd1f 	bl	8000a74 <__aeabi_fcmplt>
 8001036:	b160      	cbz	r0, 8001052 <TermoControl+0x92>
 8001038:	4b34      	ldr	r3, [pc, #208]	; (800110c <TermoControl+0x14c>)
 800103a:	781a      	ldrb	r2, [r3, #0]
 800103c:	2a01      	cmp	r2, #1
 800103e:	d008      	beq.n	8001052 <TermoControl+0x92>
 8001040:	2201      	movs	r2, #1
 8001042:	701a      	strb	r2, [r3, #0]
 8001044:	2264      	movs	r2, #100	; 0x64
 8001046:	4b32      	ldr	r3, [pc, #200]	; (8001110 <TermoControl+0x150>)
 8001048:	601a      	str	r2, [r3, #0]
 800104a:	f241 7270 	movw	r2, #6000	; 0x1770
 800104e:	4b31      	ldr	r3, [pc, #196]	; (8001114 <TermoControl+0x154>)
 8001050:	635a      	str	r2, [r3, #52]	; 0x34
 8001052:	f105 0014 	add.w	r0, r5, #20
 8001056:	f7ff fc6b 	bl	8000930 <__aeabi_i2f>
 800105a:	4601      	mov	r1, r0
 800105c:	4620      	mov	r0, r4
 800105e:	f7ff fd09 	bl	8000a74 <__aeabi_fcmplt>
 8001062:	b150      	cbz	r0, 800107a <TermoControl+0xba>
 8001064:	4b2c      	ldr	r3, [pc, #176]	; (8001118 <TermoControl+0x158>)
 8001066:	781a      	ldrb	r2, [r3, #0]
 8001068:	2a01      	cmp	r2, #1
 800106a:	d006      	beq.n	800107a <TermoControl+0xba>
 800106c:	2201      	movs	r2, #1
 800106e:	701a      	strb	r2, [r3, #0]
 8001070:	2300      	movs	r3, #0
 8001072:	4a27      	ldr	r2, [pc, #156]	; (8001110 <TermoControl+0x150>)
 8001074:	6013      	str	r3, [r2, #0]
 8001076:	4a27      	ldr	r2, [pc, #156]	; (8001114 <TermoControl+0x154>)
 8001078:	6353      	str	r3, [r2, #52]	; 0x34
 800107a:	7832      	ldrb	r2, [r6, #0]
 800107c:	2a01      	cmp	r2, #1
 800107e:	d132      	bne.n	80010e6 <TermoControl+0x126>
 8001080:	2300      	movs	r3, #0
 8001082:	4925      	ldr	r1, [pc, #148]	; (8001118 <TermoControl+0x158>)
 8001084:	700b      	strb	r3, [r1, #0]
 8001086:	4921      	ldr	r1, [pc, #132]	; (800110c <TermoControl+0x14c>)
 8001088:	700b      	strb	r3, [r1, #0]
 800108a:	4b1d      	ldr	r3, [pc, #116]	; (8001100 <TermoControl+0x140>)
 800108c:	7819      	ldrb	r1, [r3, #0]
 800108e:	2901      	cmp	r1, #1
 8001090:	d007      	beq.n	80010a2 <TermoControl+0xe2>
 8001092:	701a      	strb	r2, [r3, #0]
 8001094:	2232      	movs	r2, #50	; 0x32
 8001096:	4b1e      	ldr	r3, [pc, #120]	; (8001110 <TermoControl+0x150>)
 8001098:	601a      	str	r2, [r3, #0]
 800109a:	f640 32b8 	movw	r2, #3000	; 0xbb8
 800109e:	4b1d      	ldr	r3, [pc, #116]	; (8001114 <TermoControl+0x154>)
 80010a0:	635a      	str	r2, [r3, #52]	; 0x34
 80010a2:	4b1e      	ldr	r3, [pc, #120]	; (800111c <TermoControl+0x15c>)
 80010a4:	6818      	ldr	r0, [r3, #0]
 80010a6:	f7ff fc43 	bl	8000930 <__aeabi_i2f>
 80010aa:	4b17      	ldr	r3, [pc, #92]	; (8001108 <TermoControl+0x148>)
 80010ac:	6819      	ldr	r1, [r3, #0]
 80010ae:	f7ff fceb 	bl	8000a88 <__aeabi_fcmple>
 80010b2:	4604      	mov	r4, r0
 80010b4:	b148      	cbz	r0, 80010ca <TermoControl+0x10a>
 80010b6:	e8bd 4070 	ldmia.w	sp!, {r4, r5, r6, lr}
 80010ba:	f7ff bf6d 	b.w	8000f98 <fenreset>
 80010be:	2120      	movs	r1, #32
 80010c0:	480c      	ldr	r0, [pc, #48]	; (80010f4 <TermoControl+0x134>)
 80010c2:	f001 fba5 	bl	8002810 <HAL_GPIO_WritePin>
 80010c6:	462a      	mov	r2, r5
 80010c8:	e790      	b.n	8000fec <TermoControl+0x2c>
 80010ca:	2201      	movs	r2, #1
 80010cc:	f44f 7100 	mov.w	r1, #512	; 0x200
 80010d0:	4808      	ldr	r0, [pc, #32]	; (80010f4 <TermoControl+0x134>)
 80010d2:	f001 fb9d 	bl	8002810 <HAL_GPIO_WritePin>
 80010d6:	4622      	mov	r2, r4
 80010d8:	e8bd 4070 	ldmia.w	sp!, {r4, r5, r6, lr}
 80010dc:	f44f 5100 	mov.w	r1, #8192	; 0x2000
 80010e0:	480f      	ldr	r0, [pc, #60]	; (8001120 <TermoControl+0x160>)
 80010e2:	f001 bb95 	b.w	8002810 <HAL_GPIO_WritePin>
 80010e6:	bd70      	pop	{r4, r5, r6, pc}
 80010e8:	200000c6 	.word	0x200000c6
 80010ec:	20000030 	.word	0x20000030
 80010f0:	200001b4 	.word	0x200001b4
 80010f4:	40010c00 	.word	0x40010c00
 80010f8:	40010800 	.word	0x40010800
 80010fc:	200000c2 	.word	0x200000c2
 8001100:	200000c3 	.word	0x200000c3
 8001104:	2000001c 	.word	0x2000001c
 8001108:	2000023c 	.word	0x2000023c
 800110c:	200000c1 	.word	0x200000c1
 8001110:	20000028 	.word	0x20000028
 8001114:	40000800 	.word	0x40000800
 8001118:	200000c0 	.word	0x200000c0
 800111c:	2000002c 	.word	0x2000002c
 8001120:	40011000 	.word	0x40011000

08001124 <menu>:
 8001124:	b5f0      	push	{r4, r5, r6, r7, lr}
 8001126:	4c47      	ldr	r4, [pc, #284]	; (8001244 <menu+0x120>)
 8001128:	b0a5      	sub	sp, #148	; 0x94
 800112a:	7825      	ldrb	r5, [r4, #0]
 800112c:	2d00      	cmp	r5, #0
 800112e:	f040 8087 	bne.w	8001240 <menu+0x11c>
 8001132:	4f45      	ldr	r7, [pc, #276]	; (8001248 <menu+0x124>)
 8001134:	4945      	ldr	r1, [pc, #276]	; (800124c <menu+0x128>)
 8001136:	683e      	ldr	r6, [r7, #0]
 8001138:	4630      	mov	r0, r6
 800113a:	f7ff fc9b 	bl	8000a74 <__aeabi_fcmplt>
 800113e:	b1b0      	cbz	r0, 800116e <menu+0x4a>
 8001140:	4630      	mov	r0, r6
 8001142:	f7ff fcbf 	bl	8000ac4 <__aeabi_f2uiz>
 8001146:	4b42      	ldr	r3, [pc, #264]	; (8001250 <menu+0x12c>)
 8001148:	4942      	ldr	r1, [pc, #264]	; (8001254 <menu+0x130>)
 800114a:	681a      	ldr	r2, [r3, #0]
 800114c:	1a82      	subs	r2, r0, r2
 800114e:	a804      	add	r0, sp, #16
 8001150:	f002 fb54 	bl	80037fc <siprintf>
 8001154:	4a40      	ldr	r2, [pc, #256]	; (8001258 <menu+0x134>)
 8001156:	9502      	str	r5, [sp, #8]
 8001158:	8812      	ldrh	r2, [r2, #0]
 800115a:	4b40      	ldr	r3, [pc, #256]	; (800125c <menu+0x138>)
 800115c:	9201      	str	r2, [sp, #4]
 800115e:	685a      	ldr	r2, [r3, #4]
 8001160:	2123      	movs	r1, #35	; 0x23
 8001162:	9200      	str	r2, [sp, #0]
 8001164:	205a      	movs	r0, #90	; 0x5a
 8001166:	681b      	ldr	r3, [r3, #0]
 8001168:	aa04      	add	r2, sp, #16
 800116a:	f000 fd8f 	bl	8001c8c <ST7789_WriteString>
 800116e:	4937      	ldr	r1, [pc, #220]	; (800124c <menu+0x128>)
 8001170:	6838      	ldr	r0, [r7, #0]
 8001172:	f7ff fc9d 	bl	8000ab0 <__aeabi_fcmpgt>
 8001176:	b190      	cbz	r0, 800119e <menu+0x7a>
 8001178:	f44f 4278 	mov.w	r2, #63488	; 0xf800
 800117c:	2500      	movs	r5, #0
 800117e:	e9cd 2501 	strd	r2, r5, [sp, #4]
 8001182:	4b36      	ldr	r3, [pc, #216]	; (800125c <menu+0x138>)
 8001184:	2123      	movs	r1, #35	; 0x23
 8001186:	685a      	ldr	r2, [r3, #4]
 8001188:	205a      	movs	r0, #90	; 0x5a
 800118a:	9200      	str	r2, [sp, #0]
 800118c:	681b      	ldr	r3, [r3, #0]
 800118e:	4a34      	ldr	r2, [pc, #208]	; (8001260 <menu+0x13c>)
 8001190:	f000 fd7c 	bl	8001c8c <ST7789_WriteString>
 8001194:	462a      	mov	r2, r5
 8001196:	2120      	movs	r1, #32
 8001198:	4832      	ldr	r0, [pc, #200]	; (8001264 <menu+0x140>)
 800119a:	f001 fb39 	bl	8002810 <HAL_GPIO_WritePin>
 800119e:	7827      	ldrb	r7, [r4, #0]
 80011a0:	2f00      	cmp	r7, #0
 80011a2:	d14d      	bne.n	8001240 <menu+0x11c>
 80011a4:	4e30      	ldr	r6, [pc, #192]	; (8001268 <menu+0x144>)
 80011a6:	4929      	ldr	r1, [pc, #164]	; (800124c <menu+0x128>)
 80011a8:	6835      	ldr	r5, [r6, #0]
 80011aa:	4628      	mov	r0, r5
 80011ac:	f7ff fc62 	bl	8000a74 <__aeabi_fcmplt>
 80011b0:	b1b0      	cbz	r0, 80011e0 <menu+0xbc>
 80011b2:	4628      	mov	r0, r5
 80011b4:	f7ff fc86 	bl	8000ac4 <__aeabi_f2uiz>
 80011b8:	4b2c      	ldr	r3, [pc, #176]	; (800126c <menu+0x148>)
 80011ba:	4926      	ldr	r1, [pc, #152]	; (8001254 <menu+0x130>)
 80011bc:	681a      	ldr	r2, [r3, #0]
 80011be:	1a82      	subs	r2, r0, r2
 80011c0:	a804      	add	r0, sp, #16
 80011c2:	f002 fb1b 	bl	80037fc <siprintf>
 80011c6:	4a24      	ldr	r2, [pc, #144]	; (8001258 <menu+0x134>)
 80011c8:	9702      	str	r7, [sp, #8]
 80011ca:	8812      	ldrh	r2, [r2, #0]
 80011cc:	4b23      	ldr	r3, [pc, #140]	; (800125c <menu+0x138>)
 80011ce:	9201      	str	r2, [sp, #4]
 80011d0:	685a      	ldr	r2, [r3, #4]
 80011d2:	2173      	movs	r1, #115	; 0x73
 80011d4:	9200      	str	r2, [sp, #0]
 80011d6:	205a      	movs	r0, #90	; 0x5a
 80011d8:	681b      	ldr	r3, [r3, #0]
 80011da:	aa04      	add	r2, sp, #16
 80011dc:	f000 fd56 	bl	8001c8c <ST7789_WriteString>
 80011e0:	491a      	ldr	r1, [pc, #104]	; (800124c <menu+0x128>)
 80011e2:	6830      	ldr	r0, [r6, #0]
 80011e4:	f7ff fc64 	bl	8000ab0 <__aeabi_fcmpgt>
 80011e8:	b198      	cbz	r0, 8001212 <menu+0xee>
 80011ea:	f44f 4278 	mov.w	r2, #63488	; 0xf800
 80011ee:	2500      	movs	r5, #0
 80011f0:	e9cd 2501 	strd	r2, r5, [sp, #4]
 80011f4:	4b19      	ldr	r3, [pc, #100]	; (800125c <menu+0x138>)
 80011f6:	2173      	movs	r1, #115	; 0x73
 80011f8:	685a      	ldr	r2, [r3, #4]
 80011fa:	205a      	movs	r0, #90	; 0x5a
 80011fc:	9200      	str	r2, [sp, #0]
 80011fe:	681b      	ldr	r3, [r3, #0]
 8001200:	4a17      	ldr	r2, [pc, #92]	; (8001260 <menu+0x13c>)
 8001202:	f000 fd43 	bl	8001c8c <ST7789_WriteString>
 8001206:	462a      	mov	r2, r5
 8001208:	f44f 7100 	mov.w	r1, #512	; 0x200
 800120c:	4815      	ldr	r0, [pc, #84]	; (8001264 <menu+0x140>)
 800120e:	f001 faff 	bl	8002810 <HAL_GPIO_WritePin>
 8001212:	7824      	ldrb	r4, [r4, #0]
 8001214:	b9a4      	cbnz	r4, 8001240 <menu+0x11c>
 8001216:	2110      	movs	r1, #16
 8001218:	4b15      	ldr	r3, [pc, #84]	; (8001270 <menu+0x14c>)
 800121a:	4a16      	ldr	r2, [pc, #88]	; (8001274 <menu+0x150>)
 800121c:	681b      	ldr	r3, [r3, #0]
 800121e:	eb0d 0001 	add.w	r0, sp, r1
 8001222:	f002 fab7 	bl	8003794 <sniprintf>
 8001226:	4a0c      	ldr	r2, [pc, #48]	; (8001258 <menu+0x134>)
 8001228:	9402      	str	r4, [sp, #8]
 800122a:	8812      	ldrh	r2, [r2, #0]
 800122c:	4b0b      	ldr	r3, [pc, #44]	; (800125c <menu+0x138>)
 800122e:	9201      	str	r2, [sp, #4]
 8001230:	685a      	ldr	r2, [r3, #4]
 8001232:	21af      	movs	r1, #175	; 0xaf
 8001234:	9200      	str	r2, [sp, #0]
 8001236:	205a      	movs	r0, #90	; 0x5a
 8001238:	681b      	ldr	r3, [r3, #0]
 800123a:	aa04      	add	r2, sp, #16
 800123c:	f000 fd26 	bl	8001c8c <ST7789_WriteString>
 8001240:	b025      	add	sp, #148	; 0x94
 8001242:	bdf0      	pop	{r4, r5, r6, r7, pc}
 8001244:	200000d2 	.word	0x200000d2
 8001248:	200001b4 	.word	0x200001b4
 800124c:	44160000 	.word	0x44160000
 8001250:	20000024 	.word	0x20000024
 8001254:	080053fe 	.word	0x080053fe
 8001258:	20000008 	.word	0x20000008
 800125c:	20000000 	.word	0x20000000
 8001260:	08005404 	.word	0x08005404
 8001264:	40010c00 	.word	0x40010c00
 8001268:	2000023c 	.word	0x2000023c
 800126c:	200000c8 	.word	0x200000c8
 8001270:	20000028 	.word	0x20000028
 8001274:	080053fa 	.word	0x080053fa

08001278 <SystemClock_Config>:
 8001278:	b510      	push	{r4, lr}
 800127a:	b094      	sub	sp, #80	; 0x50
 800127c:	2210      	movs	r2, #16
 800127e:	2100      	movs	r1, #0
 8001280:	a80d      	add	r0, sp, #52	; 0x34
 8001282:	f002 fa7f 	bl	8003784 <memset>
 8001286:	2214      	movs	r2, #20
 8001288:	2100      	movs	r1, #0
 800128a:	eb0d 0002 	add.w	r0, sp, r2
 800128e:	f002 fa79 	bl	8003784 <memset>
 8001292:	2210      	movs	r2, #16
 8001294:	2100      	movs	r1, #0
 8001296:	a801      	add	r0, sp, #4
 8001298:	f002 fa74 	bl	8003784 <memset>
 800129c:	2402      	movs	r4, #2
 800129e:	f44f 3380 	mov.w	r3, #65536	; 0x10000
 80012a2:	2201      	movs	r2, #1
 80012a4:	2100      	movs	r1, #0
 80012a6:	e9cd 230a 	strd	r2, r3, [sp, #40]	; 0x28
 80012aa:	e9cd 4311 	strd	r4, r3, [sp, #68]	; 0x44
 80012ae:	f44f 13e0 	mov.w	r3, #1835008	; 0x1c0000
 80012b2:	a80a      	add	r0, sp, #40	; 0x28
 80012b4:	910c      	str	r1, [sp, #48]	; 0x30
 80012b6:	920e      	str	r2, [sp, #56]	; 0x38
 80012b8:	9313      	str	r3, [sp, #76]	; 0x4c
 80012ba:	f001 faaf 	bl	800281c <HAL_RCC_OscConfig>
 80012be:	b108      	cbz	r0, 80012c4 <SystemClock_Config+0x4c>
 80012c0:	b672      	cpsid	i
 80012c2:	e7fe      	b.n	80012c2 <SystemClock_Config+0x4a>
 80012c4:	230f      	movs	r3, #15
 80012c6:	e9cd 3405 	strd	r3, r4, [sp, #20]
 80012ca:	f44f 6380 	mov.w	r3, #1024	; 0x400
 80012ce:	9007      	str	r0, [sp, #28]
 80012d0:	e9cd 3008 	strd	r3, r0, [sp, #32]
 80012d4:	4621      	mov	r1, r4
 80012d6:	a805      	add	r0, sp, #20
 80012d8:	f001 fc76 	bl	8002bc8 <HAL_RCC_ClockConfig>
 80012dc:	b108      	cbz	r0, 80012e2 <SystemClock_Config+0x6a>
 80012de:	b672      	cpsid	i
 80012e0:	e7fe      	b.n	80012e0 <SystemClock_Config+0x68>
 80012e2:	f44f 4300 	mov.w	r3, #32768	; 0x8000
 80012e6:	a801      	add	r0, sp, #4
 80012e8:	9401      	str	r4, [sp, #4]
 80012ea:	9303      	str	r3, [sp, #12]
 80012ec:	f001 fd18 	bl	8002d20 <HAL_RCCEx_PeriphCLKConfig>
 80012f0:	b108      	cbz	r0, 80012f6 <SystemClock_Config+0x7e>
 80012f2:	b672      	cpsid	i
 80012f4:	e7fe      	b.n	80012f4 <SystemClock_Config+0x7c>
 80012f6:	b014      	add	sp, #80	; 0x50
 80012f8:	bd10      	pop	{r4, pc}
 80012fa:	0000      	movs	r0, r0
 80012fc:	0000      	movs	r0, r0
	...

08001300 <main>:
 8001300:	e92d 4ff0 	stmdb	sp!, {r4, r5, r6, r7, r8, r9, sl, fp, lr}
 8001304:	2610      	movs	r6, #16
 8001306:	b091      	sub	sp, #68	; 0x44
 8001308:	f000 fe9e 	bl	8002048 <HAL_Init>
 800130c:	f7ff ffb4 	bl	8001278 <SystemClock_Config>
 8001310:	4632      	mov	r2, r6
 8001312:	2100      	movs	r1, #0
 8001314:	a807      	add	r0, sp, #28
 8001316:	f002 fa35 	bl	8003784 <memset>
 800131a:	4ba2      	ldr	r3, [pc, #648]	; (80015a4 <main+0x2a4>)
 800131c:	f44f 5100 	mov.w	r1, #8192	; 0x2000
 8001320:	699a      	ldr	r2, [r3, #24]
 8001322:	48a1      	ldr	r0, [pc, #644]	; (80015a8 <main+0x2a8>)
 8001324:	4332      	orrs	r2, r6
 8001326:	619a      	str	r2, [r3, #24]
 8001328:	699a      	ldr	r2, [r3, #24]
 800132a:	2500      	movs	r5, #0
 800132c:	4032      	ands	r2, r6
 800132e:	9201      	str	r2, [sp, #4]
 8001330:	9a01      	ldr	r2, [sp, #4]
 8001332:	699a      	ldr	r2, [r3, #24]
 8001334:	2401      	movs	r4, #1
 8001336:	f042 0220 	orr.w	r2, r2, #32
 800133a:	619a      	str	r2, [r3, #24]
 800133c:	699a      	ldr	r2, [r3, #24]
 800133e:	f04f 0902 	mov.w	r9, #2
 8001342:	f002 0220 	and.w	r2, r2, #32
 8001346:	9202      	str	r2, [sp, #8]
 8001348:	9a02      	ldr	r2, [sp, #8]
 800134a:	699a      	ldr	r2, [r3, #24]
 800134c:	f04f 0803 	mov.w	r8, #3
 8001350:	f042 0204 	orr.w	r2, r2, #4
 8001354:	619a      	str	r2, [r3, #24]
 8001356:	699a      	ldr	r2, [r3, #24]
 8001358:	f44f 7700 	mov.w	r7, #512	; 0x200
 800135c:	f002 0204 	and.w	r2, r2, #4
 8001360:	9203      	str	r2, [sp, #12]
 8001362:	9a03      	ldr	r2, [sp, #12]
 8001364:	699a      	ldr	r2, [r3, #24]
 8001366:	f8df a26c 	ldr.w	sl, [pc, #620]	; 80015d4 <main+0x2d4>
 800136a:	f042 0208 	orr.w	r2, r2, #8
 800136e:	619a      	str	r2, [r3, #24]
 8001370:	699b      	ldr	r3, [r3, #24]
 8001372:	2201      	movs	r2, #1
 8001374:	f003 0308 	and.w	r3, r3, #8
 8001378:	9304      	str	r3, [sp, #16]
 800137a:	9b04      	ldr	r3, [sp, #16]
 800137c:	f001 fa48 	bl	8002810 <HAL_GPIO_WritePin>
 8001380:	2200      	movs	r2, #0
 8001382:	f44f 5190 	mov.w	r1, #4608	; 0x1200
 8001386:	4889      	ldr	r0, [pc, #548]	; (80015ac <main+0x2ac>)
 8001388:	f001 fa42 	bl	8002810 <HAL_GPIO_WritePin>
 800138c:	2201      	movs	r2, #1
 800138e:	f244 0120 	movw	r1, #16416	; 0x4020
 8001392:	4886      	ldr	r0, [pc, #536]	; (80015ac <main+0x2ac>)
 8001394:	f001 fa3c 	bl	8002810 <HAL_GPIO_WritePin>
 8001398:	2200      	movs	r2, #0
 800139a:	f44f 61e0 	mov.w	r1, #1792	; 0x700
 800139e:	4884      	ldr	r0, [pc, #528]	; (80015b0 <main+0x2b0>)
 80013a0:	f001 fa36 	bl	8002810 <HAL_GPIO_WritePin>
 80013a4:	f44f 5300 	mov.w	r3, #8192	; 0x2000
 80013a8:	487f      	ldr	r0, [pc, #508]	; (80015a8 <main+0x2a8>)
 80013aa:	a907      	add	r1, sp, #28
 80013ac:	e9cd 3407 	strd	r3, r4, [sp, #28]
 80013b0:	e9cd 5909 	strd	r5, r9, [sp, #36]	; 0x24
 80013b4:	f001 f94a 	bl	800264c <HAL_GPIO_Init>
 80013b8:	2304      	movs	r3, #4
 80013ba:	487d      	ldr	r0, [pc, #500]	; (80015b0 <main+0x2b0>)
 80013bc:	a907      	add	r1, sp, #28
 80013be:	e9cd 3507 	strd	r3, r5, [sp, #28]
 80013c2:	9509      	str	r5, [sp, #36]	; 0x24
 80013c4:	f001 f942 	bl	800264c <HAL_GPIO_Init>
 80013c8:	f44f 5391 	mov.w	r3, #4640	; 0x1220
 80013cc:	4877      	ldr	r0, [pc, #476]	; (80015ac <main+0x2ac>)
 80013ce:	a907      	add	r1, sp, #28
 80013d0:	e9cd 3407 	strd	r3, r4, [sp, #28]
 80013d4:	e9cd 5909 	strd	r5, r9, [sp, #36]	; 0x24
 80013d8:	f001 f938 	bl	800264c <HAL_GPIO_Init>
 80013dc:	f44f 4380 	mov.w	r3, #16384	; 0x4000
 80013e0:	4872      	ldr	r0, [pc, #456]	; (80015ac <main+0x2ac>)
 80013e2:	a907      	add	r1, sp, #28
 80013e4:	e9cd 3407 	strd	r3, r4, [sp, #28]
 80013e8:	9509      	str	r5, [sp, #36]	; 0x24
 80013ea:	f8cd 8028 	str.w	r8, [sp, #40]	; 0x28
 80013ee:	f001 f92d 	bl	800264c <HAL_GPIO_Init>
 80013f2:	f44f 7380 	mov.w	r3, #256	; 0x100
 80013f6:	486e      	ldr	r0, [pc, #440]	; (80015b0 <main+0x2b0>)
 80013f8:	a907      	add	r1, sp, #28
 80013fa:	e9cd 3407 	strd	r3, r4, [sp, #28]
 80013fe:	e9cd 5909 	strd	r5, r9, [sp, #36]	; 0x24
 8001402:	f001 f923 	bl	800264c <HAL_GPIO_Init>
 8001406:	486a      	ldr	r0, [pc, #424]	; (80015b0 <main+0x2b0>)
 8001408:	a907      	add	r1, sp, #28
 800140a:	e9cd 7407 	strd	r7, r4, [sp, #28]
 800140e:	e9cd 5809 	strd	r5, r8, [sp, #36]	; 0x24
 8001412:	f001 f91b 	bl	800264c <HAL_GPIO_Init>
 8001416:	f44f 6380 	mov.w	r3, #1024	; 0x400
 800141a:	4865      	ldr	r0, [pc, #404]	; (80015b0 <main+0x2b0>)
 800141c:	a907      	add	r1, sp, #28
 800141e:	e9cd 3407 	strd	r3, r4, [sp, #28]
 8001422:	e9cd 4809 	strd	r4, r8, [sp, #36]	; 0x24
 8001426:	f001 f911 	bl	800264c <HAL_GPIO_Init>
 800142a:	e9cd 6507 	strd	r6, r5, [sp, #28]
 800142e:	f44f 2660 	mov.w	r6, #917504	; 0xe0000
 8001432:	485e      	ldr	r0, [pc, #376]	; (80015ac <main+0x2ac>)
 8001434:	a907      	add	r1, sp, #28
 8001436:	9509      	str	r5, [sp, #36]	; 0x24
 8001438:	f001 f908 	bl	800264c <HAL_GPIO_Init>
 800143c:	4b5d      	ldr	r3, [pc, #372]	; (80015b4 <main+0x2b4>)
 800143e:	4650      	mov	r0, sl
 8001440:	e9cd 5507 	strd	r5, r5, [sp, #28]
 8001444:	9509      	str	r5, [sp, #36]	; 0x24
 8001446:	f8ca 3000 	str.w	r3, [sl]
 800144a:	f8ca 5008 	str.w	r5, [sl, #8]
 800144e:	f88a 400c 	strb.w	r4, [sl, #12]
 8001452:	f88a 5014 	strb.w	r5, [sl, #20]
 8001456:	f8ca 601c 	str.w	r6, [sl, #28]
 800145a:	f8ca 5004 	str.w	r5, [sl, #4]
 800145e:	f8ca 4010 	str.w	r4, [sl, #16]
 8001462:	f001 f801 	bl	8002468 <HAL_ADC_Init>
 8001466:	b108      	cbz	r0, 800146c <main+0x16c>
 8001468:	b672      	cpsid	i
 800146a:	e7fe      	b.n	800146a <main+0x16a>
 800146c:	e9cd 0407 	strd	r0, r4, [sp, #28]
 8001470:	9009      	str	r0, [sp, #36]	; 0x24
 8001472:	a907      	add	r1, sp, #28
 8001474:	4650      	mov	r0, sl
 8001476:	f000 febd 	bl	80021f4 <HAL_ADC_ConfigChannel>
 800147a:	b108      	cbz	r0, 8001480 <main+0x180>
 800147c:	b672      	cpsid	i
 800147e:	e7fe      	b.n	800147e <main+0x17e>
 8001480:	f04f 4380 	mov.w	r3, #1073741824	; 0x40000000
 8001484:	4d4c      	ldr	r5, [pc, #304]	; (80015b8 <main+0x2b8>)
 8001486:	e9cd 0005 	strd	r0, r0, [sp, #20]
 800148a:	e9c5 3000 	strd	r3, r0, [r5]
 800148e:	f44f 73fa 	mov.w	r3, #500	; 0x1f4
 8001492:	e9c5 3003 	strd	r3, r0, [r5, #12]
 8001496:	230f      	movs	r3, #15
 8001498:	e9cd 8007 	strd	r8, r0, [sp, #28]
 800149c:	e9cd 4009 	strd	r4, r0, [sp, #36]	; 0x24
 80014a0:	e9cd 300b 	strd	r3, r0, [sp, #44]	; 0x2c
 80014a4:	e9cd 400d 	strd	r4, r0, [sp, #52]	; 0x34
 80014a8:	60a8      	str	r0, [r5, #8]
 80014aa:	61a8      	str	r0, [r5, #24]
 80014ac:	a907      	add	r1, sp, #28
 80014ae:	4628      	mov	r0, r5
 80014b0:	930f      	str	r3, [sp, #60]	; 0x3c
 80014b2:	f001 ffbf 	bl	8003434 <HAL_TIM_Encoder_Init>
 80014b6:	b108      	cbz	r0, 80014bc <main+0x1bc>
 80014b8:	b672      	cpsid	i
 80014ba:	e7fe      	b.n	80014ba <main+0x1ba>
 80014bc:	e9cd 0005 	strd	r0, r0, [sp, #20]
 80014c0:	a905      	add	r1, sp, #20
 80014c2:	4628      	mov	r0, r5
 80014c4:	f002 f906 	bl	80036d4 <HAL_TIMEx_MasterConfigSynchronization>
 80014c8:	4605      	mov	r5, r0
 80014ca:	b108      	cbz	r0, 80014d0 <main+0x1d0>
 80014cc:	b672      	cpsid	i
 80014ce:	e7fe      	b.n	80014ce <main+0x1ce>
 80014d0:	221c      	movs	r2, #28
 80014d2:	4601      	mov	r1, r0
 80014d4:	e9cd 0005 	strd	r0, r0, [sp, #20]
 80014d8:	eb0d 0002 	add.w	r0, sp, r2
 80014dc:	f002 f952 	bl	8003784 <memset>
 80014e0:	2345      	movs	r3, #69	; 0x45
 80014e2:	f8df 80ec 	ldr.w	r8, [pc, #236]	; 80015d0 <main+0x2d0>
 80014e6:	4935      	ldr	r1, [pc, #212]	; (80015bc <main+0x2bc>)
 80014e8:	f04f 0a60 	mov.w	sl, #96	; 0x60
 80014ec:	e9c8 1300 	strd	r1, r3, [r8]
 80014f0:	f241 7370 	movw	r3, #6000	; 0x1770
 80014f4:	4640      	mov	r0, r8
 80014f6:	e9c8 a302 	strd	sl, r3, [r8, #8]
 80014fa:	f8c8 5010 	str.w	r5, [r8, #16]
 80014fe:	f8c8 5018 	str.w	r5, [r8, #24]
 8001502:	f001 ff6b 	bl	80033dc <HAL_TIM_PWM_Init>
 8001506:	b108      	cbz	r0, 800150c <main+0x20c>
 8001508:	b672      	cpsid	i
 800150a:	e7fe      	b.n	800150a <main+0x20a>
 800150c:	e9cd 0005 	strd	r0, r0, [sp, #20]
 8001510:	a905      	add	r1, sp, #20
 8001512:	4640      	mov	r0, r8
 8001514:	f002 f8de 	bl	80036d4 <HAL_TIMEx_MasterConfigSynchronization>
 8001518:	4602      	mov	r2, r0
 800151a:	b108      	cbz	r0, 8001520 <main+0x220>
 800151c:	b672      	cpsid	i
 800151e:	e7fe      	b.n	800151e <main+0x21e>
 8001520:	e9cd a007 	strd	sl, r0, [sp, #28]
 8001524:	900b      	str	r0, [sp, #44]	; 0x2c
 8001526:	a907      	add	r1, sp, #28
 8001528:	4640      	mov	r0, r8
 800152a:	f8cd 9024 	str.w	r9, [sp, #36]	; 0x24
 800152e:	f002 f803 	bl	8003538 <HAL_TIM_PWM_ConfigChannel>
 8001532:	4605      	mov	r5, r0
 8001534:	b108      	cbz	r0, 800153a <main+0x23a>
 8001536:	b672      	cpsid	i
 8001538:	e7fe      	b.n	8001538 <main+0x238>
 800153a:	4640      	mov	r0, r8
 800153c:	f000 fce8 	bl	8001f10 <HAL_TIM_MspPostInit>
 8001540:	f44f 7382 	mov.w	r3, #260	; 0x104
 8001544:	481e      	ldr	r0, [pc, #120]	; (80015c0 <main+0x2c0>)
 8001546:	4a1f      	ldr	r2, [pc, #124]	; (80015c4 <main+0x2c4>)
 8001548:	e9c0 5502 	strd	r5, r5, [r0, #8]
 800154c:	e9c0 2300 	strd	r2, r3, [r0]
 8001550:	230a      	movs	r3, #10
 8001552:	e9c0 5504 	strd	r5, r5, [r0, #16]
 8001556:	e9c0 7506 	strd	r7, r5, [r0, #24]
 800155a:	e9c0 5508 	strd	r5, r5, [r0, #32]
 800155e:	6285      	str	r5, [r0, #40]	; 0x28
 8001560:	62c3      	str	r3, [r0, #44]	; 0x2c
 8001562:	f001 fd2d 	bl	8002fc0 <HAL_SPI_Init>
 8001566:	b108      	cbz	r0, 800156c <main+0x26c>
 8001568:	b672      	cpsid	i
 800156a:	e7fe      	b.n	800156a <main+0x26a>
 800156c:	4d16      	ldr	r5, [pc, #88]	; (80015c8 <main+0x2c8>)
 800156e:	4b17      	ldr	r3, [pc, #92]	; (80015cc <main+0x2cc>)
 8001570:	e9cd 0007 	strd	r0, r0, [sp, #28]
 8001574:	9009      	str	r0, [sp, #36]	; 0x24
 8001576:	60a8      	str	r0, [r5, #8]
 8001578:	7528      	strb	r0, [r5, #20]
 800157a:	6068      	str	r0, [r5, #4]
 800157c:	4628      	mov	r0, r5
 800157e:	602b      	str	r3, [r5, #0]
 8001580:	732c      	strb	r4, [r5, #12]
 8001582:	61ee      	str	r6, [r5, #28]
 8001584:	612c      	str	r4, [r5, #16]
 8001586:	f000 ff6f 	bl	8002468 <HAL_ADC_Init>
 800158a:	b108      	cbz	r0, 8001590 <main+0x290>
 800158c:	b672      	cpsid	i
 800158e:	e7fe      	b.n	800158e <main+0x28e>
 8001590:	9009      	str	r0, [sp, #36]	; 0x24
 8001592:	a907      	add	r1, sp, #28
 8001594:	4628      	mov	r0, r5
 8001596:	e9cd 4407 	strd	r4, r4, [sp, #28]
 800159a:	f000 fe2b 	bl	80021f4 <HAL_ADC_ConfigChannel>
 800159e:	b1d8      	cbz	r0, 80015d8 <main+0x2d8>
 80015a0:	b672      	cpsid	i
 80015a2:	e7fe      	b.n	80015a2 <main+0x2a2>
 80015a4:	40021000 	.word	0x40021000
 80015a8:	40011000 	.word	0x40011000
 80015ac:	40010c00 	.word	0x40010c00
 80015b0:	40010800 	.word	0x40010800
 80015b4:	40012400 	.word	0x40012400
 80015b8:	200001f4 	.word	0x200001f4
 80015bc:	40000800 	.word	0x40000800
 80015c0:	200000e4 	.word	0x200000e4
 80015c4:	40003800 	.word	0x40003800
 80015c8:	20000184 	.word	0x20000184
 80015cc:	40012800 	.word	0x40012800
 80015d0:	2000013c 	.word	0x2000013c
 80015d4:	200001b8 	.word	0x200001b8
 80015d8:	f000 f9a6 	bl	8001928 <ST7789_Init>
 80015dc:	a748      	add	r7, pc, #288	; (adr r7, 8001700 <main+0x400>)
 80015de:	e9d7 6700 	ldrd	r6, r7, [r7]
 80015e2:	f7ff fa8f 	bl	8000b04 <mytftset>
 80015e6:	213c      	movs	r1, #60	; 0x3c
 80015e8:	4847      	ldr	r0, [pc, #284]	; (8001708 <main+0x408>)
 80015ea:	f001 fe63 	bl	80032b4 <HAL_TIM_Encoder_Start>
 80015ee:	2100      	movs	r1, #0
 80015f0:	4846      	ldr	r0, [pc, #280]	; (800170c <main+0x40c>)
 80015f2:	f002 f86d 	bl	80036d0 <HAL_TIM_PWM_Start_IT>
 80015f6:	f04f 0800 	mov.w	r8, #0
 80015fa:	f8df a130 	ldr.w	sl, [pc, #304]	; 800172c <main+0x42c>
 80015fe:	f8df 9130 	ldr.w	r9, [pc, #304]	; 8001730 <main+0x430>
 8001602:	f8df b130 	ldr.w	fp, [pc, #304]	; 8001734 <main+0x434>
 8001606:	4650      	mov	r0, sl
 8001608:	f000 feaa 	bl	8002360 <HAL_ADC_Start>
 800160c:	2164      	movs	r1, #100	; 0x64
 800160e:	4650      	mov	r0, sl
 8001610:	f000 fd50 	bl	80020b4 <HAL_ADC_PollForConversion>
 8001614:	4650      	mov	r0, sl
 8001616:	f000 fde9 	bl	80021ec <HAL_ADC_GetValue>
 800161a:	4604      	mov	r4, r0
 800161c:	4650      	mov	r0, sl
 800161e:	f000 ffa1 	bl	8002564 <HAL_ADC_Stop>
 8001622:	4620      	mov	r0, r4
 8001624:	f7ff f810 	bl	8000648 <__aeabi_i2d>
 8001628:	4632      	mov	r2, r6
 800162a:	463b      	mov	r3, r7
 800162c:	f7fe fd90 	bl	8000150 <__aeabi_dmul>
 8001630:	4642      	mov	r2, r8
 8001632:	464b      	mov	r3, r9
 8001634:	f7fe fd8c 	bl	8000150 <__aeabi_dmul>
 8001638:	4b35      	ldr	r3, [pc, #212]	; (8001710 <main+0x410>)
 800163a:	4604      	mov	r4, r0
 800163c:	6818      	ldr	r0, [r3, #0]
 800163e:	460d      	mov	r5, r1
 8001640:	f7ff f802 	bl	8000648 <__aeabi_i2d>
 8001644:	4602      	mov	r2, r0
 8001646:	460b      	mov	r3, r1
 8001648:	4620      	mov	r0, r4
 800164a:	4629      	mov	r1, r5
 800164c:	f7fe feae 	bl	80003ac <__aeabi_dsub>
 8001650:	f7ff f864 	bl	800071c <__aeabi_d2f>
 8001654:	4b2f      	ldr	r3, [pc, #188]	; (8001714 <main+0x414>)
 8001656:	6018      	str	r0, [r3, #0]
 8001658:	4658      	mov	r0, fp
 800165a:	f000 fe81 	bl	8002360 <HAL_ADC_Start>
 800165e:	2164      	movs	r1, #100	; 0x64
 8001660:	4658      	mov	r0, fp
 8001662:	f000 fd27 	bl	80020b4 <HAL_ADC_PollForConversion>
 8001666:	4658      	mov	r0, fp
 8001668:	f000 fdc0 	bl	80021ec <HAL_ADC_GetValue>
 800166c:	4604      	mov	r4, r0
 800166e:	4658      	mov	r0, fp
 8001670:	f000 ff78 	bl	8002564 <HAL_ADC_Stop>
 8001674:	4620      	mov	r0, r4
 8001676:	f7fe ffe7 	bl	8000648 <__aeabi_i2d>
 800167a:	4632      	mov	r2, r6
 800167c:	463b      	mov	r3, r7
 800167e:	f7fe fd67 	bl	8000150 <__aeabi_dmul>
 8001682:	4642      	mov	r2, r8
 8001684:	464b      	mov	r3, r9
 8001686:	f7fe fd63 	bl	8000150 <__aeabi_dmul>
 800168a:	4b23      	ldr	r3, [pc, #140]	; (8001718 <main+0x418>)
 800168c:	4604      	mov	r4, r0
 800168e:	6818      	ldr	r0, [r3, #0]
 8001690:	460d      	mov	r5, r1
 8001692:	f7fe ffd9 	bl	8000648 <__aeabi_i2d>
 8001696:	4602      	mov	r2, r0
 8001698:	460b      	mov	r3, r1
 800169a:	4620      	mov	r0, r4
 800169c:	4629      	mov	r1, r5
 800169e:	f7fe fe85 	bl	80003ac <__aeabi_dsub>
 80016a2:	f7ff f83b 	bl	800071c <__aeabi_d2f>
 80016a6:	f242 3228 	movw	r2, #9000	; 0x2328
 80016aa:	4b1c      	ldr	r3, [pc, #112]	; (800171c <main+0x41c>)
 80016ac:	4c1c      	ldr	r4, [pc, #112]	; (8001720 <main+0x420>)
 80016ae:	6018      	str	r0, [r3, #0]
 80016b0:	6823      	ldr	r3, [r4, #0]
 80016b2:	4293      	cmp	r3, r2
 80016b4:	d007      	beq.n	80016c6 <main+0x3c6>
 80016b6:	f644 2238 	movw	r2, #19000	; 0x4a38
 80016ba:	4293      	cmp	r3, r2
 80016bc:	d003      	beq.n	80016c6 <main+0x3c6>
 80016be:	f247 1248 	movw	r2, #29000	; 0x7148
 80016c2:	4293      	cmp	r3, r2
 80016c4:	d101      	bne.n	80016ca <main+0x3ca>
 80016c6:	f7ff fd2d 	bl	8001124 <menu>
 80016ca:	f7ff fa83 	bl	8000bd4 <encoder>
 80016ce:	f247 5330 	movw	r3, #30000	; 0x7530
 80016d2:	6822      	ldr	r2, [r4, #0]
 80016d4:	429a      	cmp	r2, r3
 80016d6:	bf01      	itttt	eq
 80016d8:	2300      	moveq	r3, #0
 80016da:	4a12      	ldreq	r2, [pc, #72]	; (8001724 <main+0x424>)
 80016dc:	6023      	streq	r3, [r4, #0]
 80016de:	7013      	strbeq	r3, [r2, #0]
 80016e0:	f7ff fc6e 	bl	8000fc0 <TermoControl>
 80016e4:	f64e 2260 	movw	r2, #60000	; 0xea60
 80016e8:	6823      	ldr	r3, [r4, #0]
 80016ea:	3301      	adds	r3, #1
 80016ec:	6023      	str	r3, [r4, #0]
 80016ee:	4b0e      	ldr	r3, [pc, #56]	; (8001728 <main+0x428>)
 80016f0:	6819      	ldr	r1, [r3, #0]
 80016f2:	4291      	cmp	r1, r2
 80016f4:	d187      	bne.n	8001606 <main+0x306>
 80016f6:	2200      	movs	r2, #0
 80016f8:	601a      	str	r2, [r3, #0]
 80016fa:	e782      	b.n	8001602 <main+0x302>
 80016fc:	f3af 8000 	nop.w
 8001700:	e978d4fe 	.word	0xe978d4fe
 8001704:	3f6a3126 	.word	0x3f6a3126
 8001708:	200001f4 	.word	0x200001f4
 800170c:	2000013c 	.word	0x2000013c
 8001710:	20000024 	.word	0x20000024
 8001714:	200001b4 	.word	0x200001b4
 8001718:	200000c8 	.word	0x200000c8
 800171c:	2000023c 	.word	0x2000023c
 8001720:	200001f0 	.word	0x200001f0
 8001724:	200000d2 	.word	0x200000d2
 8001728:	200001e8 	.word	0x200001e8
 800172c:	200001b8 	.word	0x200001b8
 8001730:	40590000 	.word	0x40590000
 8001734:	20000184 	.word	0x20000184

08001738 <ST7789_WriteCommand>:
 8001738:	b513      	push	{r0, r1, r4, lr}
 800173a:	4c0f      	ldr	r4, [pc, #60]	; (8001778 <ST7789_WriteCommand+0x40>)
 800173c:	f88d 0007 	strb.w	r0, [sp, #7]
 8001740:	2200      	movs	r2, #0
 8001742:	4620      	mov	r0, r4
 8001744:	f44f 4180 	mov.w	r1, #16384	; 0x4000
 8001748:	f001 f862 	bl	8002810 <HAL_GPIO_WritePin>
 800174c:	2200      	movs	r2, #0
 800174e:	f44f 7100 	mov.w	r1, #512	; 0x200
 8001752:	480a      	ldr	r0, [pc, #40]	; (800177c <ST7789_WriteCommand+0x44>)
 8001754:	f001 f85c 	bl	8002810 <HAL_GPIO_WritePin>
 8001758:	f04f 33ff 	mov.w	r3, #4294967295
 800175c:	f10d 0107 	add.w	r1, sp, #7
 8001760:	2201      	movs	r2, #1
 8001762:	4807      	ldr	r0, [pc, #28]	; (8001780 <ST7789_WriteCommand+0x48>)
 8001764:	f001 fc84 	bl	8003070 <HAL_SPI_Transmit>
 8001768:	2201      	movs	r2, #1
 800176a:	f44f 4180 	mov.w	r1, #16384	; 0x4000
 800176e:	4620      	mov	r0, r4
 8001770:	f001 f84e 	bl	8002810 <HAL_GPIO_WritePin>
 8001774:	b002      	add	sp, #8
 8001776:	bd10      	pop	{r4, pc}
 8001778:	40010c00 	.word	0x40010c00
 800177c:	40010800 	.word	0x40010800
 8001780:	200000e4 	.word	0x200000e4

08001784 <ST7789_WriteSmallData>:
 8001784:	b513      	push	{r0, r1, r4, lr}
 8001786:	4c0f      	ldr	r4, [pc, #60]	; (80017c4 <ST7789_WriteSmallData+0x40>)
 8001788:	f88d 0007 	strb.w	r0, [sp, #7]
 800178c:	2200      	movs	r2, #0
 800178e:	4620      	mov	r0, r4
 8001790:	f44f 4180 	mov.w	r1, #16384	; 0x4000
 8001794:	f001 f83c 	bl	8002810 <HAL_GPIO_WritePin>
 8001798:	2201      	movs	r2, #1
 800179a:	f44f 7100 	mov.w	r1, #512	; 0x200
 800179e:	480a      	ldr	r0, [pc, #40]	; (80017c8 <ST7789_WriteSmallData+0x44>)
 80017a0:	f001 f836 	bl	8002810 <HAL_GPIO_WritePin>
 80017a4:	f04f 33ff 	mov.w	r3, #4294967295
 80017a8:	f10d 0107 	add.w	r1, sp, #7
 80017ac:	2201      	movs	r2, #1
 80017ae:	4807      	ldr	r0, [pc, #28]	; (80017cc <ST7789_WriteSmallData+0x48>)
 80017b0:	f001 fc5e 	bl	8003070 <HAL_SPI_Transmit>
 80017b4:	2201      	movs	r2, #1
 80017b6:	f44f 4180 	mov.w	r1, #16384	; 0x4000
 80017ba:	4620      	mov	r0, r4
 80017bc:	f001 f828 	bl	8002810 <HAL_GPIO_WritePin>
 80017c0:	b002      	add	sp, #8
 80017c2:	bd10      	pop	{r4, pc}
 80017c4:	40010c00 	.word	0x40010c00
 80017c8:	40010800 	.word	0x40010800
 80017cc:	200000e4 	.word	0x200000e4

080017d0 <ST7789_WriteData>:
 80017d0:	e92d 41f0 	stmdb	sp!, {r4, r5, r6, r7, r8, lr}
 80017d4:	2200      	movs	r2, #0
 80017d6:	4605      	mov	r5, r0
 80017d8:	460c      	mov	r4, r1
 80017da:	4813      	ldr	r0, [pc, #76]	; (8001828 <ST7789_WriteData+0x58>)
 80017dc:	f44f 4180 	mov.w	r1, #16384	; 0x4000
 80017e0:	f001 f816 	bl	8002810 <HAL_GPIO_WritePin>
 80017e4:	2201      	movs	r2, #1
 80017e6:	f44f 7100 	mov.w	r1, #512	; 0x200
 80017ea:	4810      	ldr	r0, [pc, #64]	; (800182c <ST7789_WriteData+0x5c>)
 80017ec:	f001 f810 	bl	8002810 <HAL_GPIO_WritePin>
 80017f0:	f64f 77ff 	movw	r7, #65535	; 0xffff
 80017f4:	f8df 8038 	ldr.w	r8, [pc, #56]	; 8001830 <ST7789_WriteData+0x60>
 80017f8:	b93c      	cbnz	r4, 800180a <ST7789_WriteData+0x3a>
 80017fa:	e8bd 41f0 	ldmia.w	sp!, {r4, r5, r6, r7, r8, lr}
 80017fe:	2201      	movs	r2, #1
 8001800:	f44f 4180 	mov.w	r1, #16384	; 0x4000
 8001804:	4808      	ldr	r0, [pc, #32]	; (8001828 <ST7789_WriteData+0x58>)
 8001806:	f001 b803 	b.w	8002810 <HAL_GPIO_WritePin>
 800180a:	42bc      	cmp	r4, r7
 800180c:	4626      	mov	r6, r4
 800180e:	bf28      	it	cs
 8001810:	463e      	movcs	r6, r7
 8001812:	4629      	mov	r1, r5
 8001814:	f04f 33ff 	mov.w	r3, #4294967295
 8001818:	4640      	mov	r0, r8
 800181a:	b2b2      	uxth	r2, r6
 800181c:	f001 fc28 	bl	8003070 <HAL_SPI_Transmit>
 8001820:	4435      	add	r5, r6
 8001822:	1ba4      	subs	r4, r4, r6
 8001824:	e7e8      	b.n	80017f8 <ST7789_WriteData+0x28>
 8001826:	bf00      	nop
 8001828:	40010c00 	.word	0x40010c00
 800182c:	40010800 	.word	0x40010800
 8001830:	200000e4 	.word	0x200000e4

08001834 <ST7789_SetAddressWindow>:
 8001834:	e92d 41f3 	stmdb	sp!, {r0, r1, r4, r5, r6, r7, r8, lr}
 8001838:	f8df 8064 	ldr.w	r8, [pc, #100]	; 80018a0 <ST7789_SetAddressWindow+0x6c>
 800183c:	4607      	mov	r7, r0
 800183e:	460d      	mov	r5, r1
 8001840:	4640      	mov	r0, r8
 8001842:	f44f 4180 	mov.w	r1, #16384	; 0x4000
 8001846:	4616      	mov	r6, r2
 8001848:	2200      	movs	r2, #0
 800184a:	461c      	mov	r4, r3
 800184c:	f000 ffe0 	bl	8002810 <HAL_GPIO_WritePin>
 8001850:	202a      	movs	r0, #42	; 0x2a
 8001852:	f7ff ff71 	bl	8001738 <ST7789_WriteCommand>
 8001856:	2104      	movs	r1, #4
 8001858:	ba7f      	rev16	r7, r7
 800185a:	eb0d 0001 	add.w	r0, sp, r1
 800185e:	ba76      	rev16	r6, r6
 8001860:	f8ad 7004 	strh.w	r7, [sp, #4]
 8001864:	f8ad 6006 	strh.w	r6, [sp, #6]
 8001868:	f7ff ffb2 	bl	80017d0 <ST7789_WriteData>
 800186c:	202b      	movs	r0, #43	; 0x2b
 800186e:	f7ff ff63 	bl	8001738 <ST7789_WriteCommand>
 8001872:	2104      	movs	r1, #4
 8001874:	ba6d      	rev16	r5, r5
 8001876:	eb0d 0001 	add.w	r0, sp, r1
 800187a:	ba64      	rev16	r4, r4
 800187c:	f8ad 5004 	strh.w	r5, [sp, #4]
 8001880:	f8ad 4006 	strh.w	r4, [sp, #6]
 8001884:	f7ff ffa4 	bl	80017d0 <ST7789_WriteData>
 8001888:	202c      	movs	r0, #44	; 0x2c
 800188a:	f7ff ff55 	bl	8001738 <ST7789_WriteCommand>
 800188e:	2201      	movs	r2, #1
 8001890:	f44f 4180 	mov.w	r1, #16384	; 0x4000
 8001894:	4640      	mov	r0, r8
 8001896:	f000 ffbb 	bl	8002810 <HAL_GPIO_WritePin>
 800189a:	b002      	add	sp, #8
 800189c:	e8bd 81f0 	ldmia.w	sp!, {r4, r5, r6, r7, r8, pc}
 80018a0:	40010c00 	.word	0x40010c00

080018a4 <ST7789_SetRotation>:
 80018a4:	b510      	push	{r4, lr}
 80018a6:	4604      	mov	r4, r0
 80018a8:	2036      	movs	r0, #54	; 0x36
 80018aa:	f7ff ff45 	bl	8001738 <ST7789_WriteCommand>
 80018ae:	2c03      	cmp	r4, #3
 80018b0:	d80e      	bhi.n	80018d0 <ST7789_SetRotation+0x2c>
 80018b2:	e8df f004 	tbb	[pc, r4]
 80018b6:	0702      	.short	0x0702
 80018b8:	0b09      	.short	0x0b09
 80018ba:	20c0      	movs	r0, #192	; 0xc0
 80018bc:	e8bd 4010 	ldmia.w	sp!, {r4, lr}
 80018c0:	f7ff bf60 	b.w	8001784 <ST7789_WriteSmallData>
 80018c4:	20a0      	movs	r0, #160	; 0xa0
 80018c6:	e7f9      	b.n	80018bc <ST7789_SetRotation+0x18>
 80018c8:	2000      	movs	r0, #0
 80018ca:	e7f7      	b.n	80018bc <ST7789_SetRotation+0x18>
 80018cc:	2060      	movs	r0, #96	; 0x60
 80018ce:	e7f5      	b.n	80018bc <ST7789_SetRotation+0x18>
 80018d0:	bd10      	pop	{r4, pc}
	...

080018d4 <ST7789_Fill_Color>:
 80018d4:	b573      	push	{r0, r1, r4, r5, r6, lr}
 80018d6:	23ef      	movs	r3, #239	; 0xef
 80018d8:	2100      	movs	r1, #0
 80018da:	461a      	mov	r2, r3
 80018dc:	4606      	mov	r6, r0
 80018de:	4608      	mov	r0, r1
 80018e0:	f7ff ffa8 	bl	8001834 <ST7789_SetAddressWindow>
 80018e4:	2200      	movs	r2, #0
 80018e6:	f44f 4180 	mov.w	r1, #16384	; 0x4000
 80018ea:	480e      	ldr	r0, [pc, #56]	; (8001924 <ST7789_Fill_Color+0x50>)
 80018ec:	f000 ff90 	bl	8002810 <HAL_GPIO_WritePin>
 80018f0:	25f0      	movs	r5, #240	; 0xf0
 80018f2:	ba76      	rev16	r6, r6
 80018f4:	24f0      	movs	r4, #240	; 0xf0
 80018f6:	3c01      	subs	r4, #1
 80018f8:	2102      	movs	r1, #2
 80018fa:	a801      	add	r0, sp, #4
 80018fc:	b2a4      	uxth	r4, r4
 80018fe:	f8ad 6004 	strh.w	r6, [sp, #4]
 8001902:	f7ff ff65 	bl	80017d0 <ST7789_WriteData>
 8001906:	2c00      	cmp	r4, #0
 8001908:	d1f5      	bne.n	80018f6 <ST7789_Fill_Color+0x22>
 800190a:	3d01      	subs	r5, #1
 800190c:	b2ad      	uxth	r5, r5
 800190e:	2d00      	cmp	r5, #0
 8001910:	d1f0      	bne.n	80018f4 <ST7789_Fill_Color+0x20>
 8001912:	2201      	movs	r2, #1
 8001914:	f44f 4180 	mov.w	r1, #16384	; 0x4000
 8001918:	4802      	ldr	r0, [pc, #8]	; (8001924 <ST7789_Fill_Color+0x50>)
 800191a:	f000 ff79 	bl	8002810 <HAL_GPIO_WritePin>
 800191e:	b002      	add	sp, #8
 8001920:	bd70      	pop	{r4, r5, r6, pc}
 8001922:	bf00      	nop
 8001924:	40010c00 	.word	0x40010c00

08001928 <ST7789_Init>:
 8001928:	b530      	push	{r4, r5, lr}
 800192a:	2019      	movs	r0, #25
 800192c:	b085      	sub	sp, #20
 800192e:	f000 fbaf 	bl	8002090 <HAL_Delay>
 8001932:	2200      	movs	r2, #0
 8001934:	f44f 6180 	mov.w	r1, #1024	; 0x400
 8001938:	484c      	ldr	r0, [pc, #304]	; (8001a6c <ST7789_Init+0x144>)
 800193a:	f000 ff69 	bl	8002810 <HAL_GPIO_WritePin>
 800193e:	2019      	movs	r0, #25
 8001940:	f000 fba6 	bl	8002090 <HAL_Delay>
 8001944:	2201      	movs	r2, #1
 8001946:	f44f 6180 	mov.w	r1, #1024	; 0x400
 800194a:	4848      	ldr	r0, [pc, #288]	; (8001a6c <ST7789_Init+0x144>)
 800194c:	f000 ff60 	bl	8002810 <HAL_GPIO_WritePin>
 8001950:	2032      	movs	r0, #50	; 0x32
 8001952:	f000 fb9d 	bl	8002090 <HAL_Delay>
 8001956:	203a      	movs	r0, #58	; 0x3a
 8001958:	f7ff feee 	bl	8001738 <ST7789_WriteCommand>
 800195c:	2055      	movs	r0, #85	; 0x55
 800195e:	f7ff ff11 	bl	8001784 <ST7789_WriteSmallData>
 8001962:	20b2      	movs	r0, #178	; 0xb2
 8001964:	f7ff fee8 	bl	8001738 <ST7789_WriteCommand>
 8001968:	4b41      	ldr	r3, [pc, #260]	; (8001a70 <ST7789_Init+0x148>)
 800196a:	2105      	movs	r1, #5
 800196c:	6818      	ldr	r0, [r3, #0]
 800196e:	791b      	ldrb	r3, [r3, #4]
 8001970:	9000      	str	r0, [sp, #0]
 8001972:	4668      	mov	r0, sp
 8001974:	f88d 3004 	strb.w	r3, [sp, #4]
 8001978:	f7ff ff2a 	bl	80017d0 <ST7789_WriteData>
 800197c:	2002      	movs	r0, #2
 800197e:	f7ff ff91 	bl	80018a4 <ST7789_SetRotation>
 8001982:	20b7      	movs	r0, #183	; 0xb7
 8001984:	f7ff fed8 	bl	8001738 <ST7789_WriteCommand>
 8001988:	2035      	movs	r0, #53	; 0x35
 800198a:	f7ff fefb 	bl	8001784 <ST7789_WriteSmallData>
 800198e:	20bb      	movs	r0, #187	; 0xbb
 8001990:	f7ff fed2 	bl	8001738 <ST7789_WriteCommand>
 8001994:	2019      	movs	r0, #25
 8001996:	f7ff fef5 	bl	8001784 <ST7789_WriteSmallData>
 800199a:	20c0      	movs	r0, #192	; 0xc0
 800199c:	f7ff fecc 	bl	8001738 <ST7789_WriteCommand>
 80019a0:	202c      	movs	r0, #44	; 0x2c
 80019a2:	f7ff feef 	bl	8001784 <ST7789_WriteSmallData>
 80019a6:	20c2      	movs	r0, #194	; 0xc2
 80019a8:	f7ff fec6 	bl	8001738 <ST7789_WriteCommand>
 80019ac:	2001      	movs	r0, #1
 80019ae:	f7ff fee9 	bl	8001784 <ST7789_WriteSmallData>
 80019b2:	20c3      	movs	r0, #195	; 0xc3
 80019b4:	f7ff fec0 	bl	8001738 <ST7789_WriteCommand>
 80019b8:	2012      	movs	r0, #18
 80019ba:	f7ff fee3 	bl	8001784 <ST7789_WriteSmallData>
 80019be:	20c4      	movs	r0, #196	; 0xc4
 80019c0:	f7ff feba 	bl	8001738 <ST7789_WriteCommand>
 80019c4:	2020      	movs	r0, #32
 80019c6:	f7ff fedd 	bl	8001784 <ST7789_WriteSmallData>
 80019ca:	20c6      	movs	r0, #198	; 0xc6
 80019cc:	f7ff feb4 	bl	8001738 <ST7789_WriteCommand>
 80019d0:	200f      	movs	r0, #15
 80019d2:	f7ff fed7 	bl	8001784 <ST7789_WriteSmallData>
 80019d6:	20d0      	movs	r0, #208	; 0xd0
 80019d8:	f7ff feae 	bl	8001738 <ST7789_WriteCommand>
 80019dc:	20a4      	movs	r0, #164	; 0xa4
 80019de:	f7ff fed1 	bl	8001784 <ST7789_WriteSmallData>
 80019e2:	20a1      	movs	r0, #161	; 0xa1
 80019e4:	f7ff fece 	bl	8001784 <ST7789_WriteSmallData>
 80019e8:	20e0      	movs	r0, #224	; 0xe0
 80019ea:	f7ff fea5 	bl	8001738 <ST7789_WriteCommand>
 80019ee:	466a      	mov	r2, sp
 80019f0:	4b20      	ldr	r3, [pc, #128]	; (8001a74 <ST7789_Init+0x14c>)
 80019f2:	f103 0508 	add.w	r5, r3, #8
 80019f6:	4614      	mov	r4, r2
 80019f8:	6818      	ldr	r0, [r3, #0]
 80019fa:	6859      	ldr	r1, [r3, #4]
 80019fc:	3308      	adds	r3, #8
 80019fe:	c403      	stmia	r4!, {r0, r1}
 8001a00:	42ab      	cmp	r3, r5
 8001a02:	4622      	mov	r2, r4
 8001a04:	d1f7      	bne.n	80019f6 <ST7789_Init+0xce>
 8001a06:	6818      	ldr	r0, [r3, #0]
 8001a08:	889b      	ldrh	r3, [r3, #4]
 8001a0a:	210e      	movs	r1, #14
 8001a0c:	80a3      	strh	r3, [r4, #4]
 8001a0e:	6020      	str	r0, [r4, #0]
 8001a10:	4668      	mov	r0, sp
 8001a12:	f7ff fedd 	bl	80017d0 <ST7789_WriteData>
 8001a16:	20e1      	movs	r0, #225	; 0xe1
 8001a18:	f7ff fe8e 	bl	8001738 <ST7789_WriteCommand>
 8001a1c:	466a      	mov	r2, sp
 8001a1e:	4b16      	ldr	r3, [pc, #88]	; (8001a78 <ST7789_Init+0x150>)
 8001a20:	f103 0508 	add.w	r5, r3, #8
 8001a24:	4614      	mov	r4, r2
 8001a26:	6818      	ldr	r0, [r3, #0]
 8001a28:	6859      	ldr	r1, [r3, #4]
 8001a2a:	3308      	adds	r3, #8
 8001a2c:	c403      	stmia	r4!, {r0, r1}
 8001a2e:	42ab      	cmp	r3, r5
 8001a30:	4622      	mov	r2, r4
 8001a32:	d1f7      	bne.n	8001a24 <ST7789_Init+0xfc>
 8001a34:	6818      	ldr	r0, [r3, #0]
 8001a36:	889b      	ldrh	r3, [r3, #4]
 8001a38:	210e      	movs	r1, #14
 8001a3a:	80a3      	strh	r3, [r4, #4]
 8001a3c:	6020      	str	r0, [r4, #0]
 8001a3e:	4668      	mov	r0, sp
 8001a40:	f7ff fec6 	bl	80017d0 <ST7789_WriteData>
 8001a44:	2021      	movs	r0, #33	; 0x21
 8001a46:	f7ff fe77 	bl	8001738 <ST7789_WriteCommand>
 8001a4a:	2011      	movs	r0, #17
 8001a4c:	f7ff fe74 	bl	8001738 <ST7789_WriteCommand>
 8001a50:	2013      	movs	r0, #19
 8001a52:	f7ff fe71 	bl	8001738 <ST7789_WriteCommand>
 8001a56:	2029      	movs	r0, #41	; 0x29
 8001a58:	f7ff fe6e 	bl	8001738 <ST7789_WriteCommand>
 8001a5c:	2032      	movs	r0, #50	; 0x32
 8001a5e:	f000 fb17 	bl	8002090 <HAL_Delay>
 8001a62:	2000      	movs	r0, #0
 8001a64:	f7ff ff36 	bl	80018d4 <ST7789_Fill_Color>
 8001a68:	b005      	add	sp, #20
 8001a6a:	bd30      	pop	{r4, r5, pc}
 8001a6c:	40010800 	.word	0x40010800
 8001a70:	08004088 	.word	0x08004088
 8001a74:	0800540a 	.word	0x0800540a
 8001a78:	08005419 	.word	0x08005419

08001a7c <ST7789_DrawPixel>:
 8001a7c:	28ef      	cmp	r0, #239	; 0xef
 8001a7e:	b537      	push	{r0, r1, r2, r4, r5, lr}
 8001a80:	460b      	mov	r3, r1
 8001a82:	4614      	mov	r4, r2
 8001a84:	d817      	bhi.n	8001ab6 <ST7789_DrawPixel+0x3a>
 8001a86:	29ef      	cmp	r1, #239	; 0xef
 8001a88:	d815      	bhi.n	8001ab6 <ST7789_DrawPixel+0x3a>
 8001a8a:	4602      	mov	r2, r0
 8001a8c:	f7ff fed2 	bl	8001834 <ST7789_SetAddressWindow>
 8001a90:	ba64      	rev16	r4, r4
 8001a92:	2200      	movs	r2, #0
 8001a94:	f44f 4180 	mov.w	r1, #16384	; 0x4000
 8001a98:	4808      	ldr	r0, [pc, #32]	; (8001abc <ST7789_DrawPixel+0x40>)
 8001a9a:	f8ad 4004 	strh.w	r4, [sp, #4]
 8001a9e:	f000 feb7 	bl	8002810 <HAL_GPIO_WritePin>
 8001aa2:	2102      	movs	r1, #2
 8001aa4:	a801      	add	r0, sp, #4
 8001aa6:	f7ff fe93 	bl	80017d0 <ST7789_WriteData>
 8001aaa:	2201      	movs	r2, #1
 8001aac:	f44f 4180 	mov.w	r1, #16384	; 0x4000
 8001ab0:	4802      	ldr	r0, [pc, #8]	; (8001abc <ST7789_DrawPixel+0x40>)
 8001ab2:	f000 fead 	bl	8002810 <HAL_GPIO_WritePin>
 8001ab6:	b003      	add	sp, #12
 8001ab8:	bd30      	pop	{r4, r5, pc}
 8001aba:	bf00      	nop
 8001abc:	40010c00 	.word	0x40010c00

08001ac0 <ST7789_DrawLine>:
 8001ac0:	e92d 4ff7 	stmdb	sp!, {r0, r1, r2, r4, r5, r6, r7, r8, r9, sl, fp, lr}
 8001ac4:	4617      	mov	r7, r2
 8001ac6:	eba3 0801 	sub.w	r8, r3, r1
 8001aca:	eba7 0900 	sub.w	r9, r7, r0
 8001ace:	f1b8 0f00 	cmp.w	r8, #0
 8001ad2:	bfb8      	it	lt
 8001ad4:	f1c8 0800 	rsblt	r8, r8, #0
 8001ad8:	f1b9 0f00 	cmp.w	r9, #0
 8001adc:	bfb8      	it	lt
 8001ade:	f1c9 0900 	rsblt	r9, r9, #0
 8001ae2:	45c8      	cmp	r8, r9
 8001ae4:	4604      	mov	r4, r0
 8001ae6:	460d      	mov	r5, r1
 8001ae8:	461e      	mov	r6, r3
 8001aea:	f8bd 2030 	ldrh.w	r2, [sp, #48]	; 0x30
 8001aee:	dd04      	ble.n	8001afa <ST7789_DrawLine+0x3a>
 8001af0:	463b      	mov	r3, r7
 8001af2:	460c      	mov	r4, r1
 8001af4:	4637      	mov	r7, r6
 8001af6:	4605      	mov	r5, r0
 8001af8:	461e      	mov	r6, r3
 8001afa:	42bc      	cmp	r4, r7
 8001afc:	d905      	bls.n	8001b0a <ST7789_DrawLine+0x4a>
 8001afe:	462b      	mov	r3, r5
 8001b00:	4635      	mov	r5, r6
 8001b02:	461e      	mov	r6, r3
 8001b04:	4623      	mov	r3, r4
 8001b06:	463c      	mov	r4, r7
 8001b08:	461f      	mov	r7, r3
 8001b0a:	eba6 0a05 	sub.w	sl, r6, r5
 8001b0e:	f1ba 0f00 	cmp.w	sl, #0
 8001b12:	bfb8      	it	lt
 8001b14:	f1ca 0a00 	rsblt	sl, sl, #0
 8001b18:	42b5      	cmp	r5, r6
 8001b1a:	bf34      	ite	cc
 8001b1c:	2601      	movcc	r6, #1
 8001b1e:	f04f 36ff 	movcs.w	r6, #4294967295
 8001b22:	1b39      	subs	r1, r7, r4
 8001b24:	b28b      	uxth	r3, r1
 8001b26:	9300      	str	r3, [sp, #0]
 8001b28:	b208      	sxth	r0, r1
 8001b2a:	f3c1 33c0 	ubfx	r3, r1, #15, #1
 8001b2e:	4403      	add	r3, r0
 8001b30:	ea4f 0b63 	mov.w	fp, r3, asr #1
 8001b34:	42bc      	cmp	r4, r7
 8001b36:	d902      	bls.n	8001b3e <ST7789_DrawLine+0x7e>
 8001b38:	b003      	add	sp, #12
 8001b3a:	e8bd 8ff0 	ldmia.w	sp!, {r4, r5, r6, r7, r8, r9, sl, fp, pc}
 8001b3e:	45c8      	cmp	r8, r9
 8001b40:	bfcb      	itete	gt
 8001b42:	4628      	movgt	r0, r5
 8001b44:	4620      	movle	r0, r4
 8001b46:	4621      	movgt	r1, r4
 8001b48:	4629      	movle	r1, r5
 8001b4a:	9201      	str	r2, [sp, #4]
 8001b4c:	f7ff ff96 	bl	8001a7c <ST7789_DrawPixel>
 8001b50:	ebab 030a 	sub.w	r3, fp, sl
 8001b54:	fa0f fb83 	sxth.w	fp, r3
 8001b58:	f1bb 0f00 	cmp.w	fp, #0
 8001b5c:	9a01      	ldr	r2, [sp, #4]
 8001b5e:	b298      	uxth	r0, r3
 8001b60:	da05      	bge.n	8001b6e <ST7789_DrawLine+0xae>
 8001b62:	9b00      	ldr	r3, [sp, #0]
 8001b64:	4435      	add	r5, r6
 8001b66:	4403      	add	r3, r0
 8001b68:	b2ad      	uxth	r5, r5
 8001b6a:	fa0f fb83 	sxth.w	fp, r3
 8001b6e:	3401      	adds	r4, #1
 8001b70:	b2a4      	uxth	r4, r4
 8001b72:	e7df      	b.n	8001b34 <ST7789_DrawLine+0x74>

08001b74 <ST7789_DrawRectangle>:
 8001b74:	e92d 43f7 	stmdb	sp!, {r0, r1, r2, r4, r5, r6, r7, r8, r9, lr}
 8001b78:	4606      	mov	r6, r0
 8001b7a:	460c      	mov	r4, r1
 8001b7c:	4617      	mov	r7, r2
 8001b7e:	461d      	mov	r5, r3
 8001b80:	f8df 9064 	ldr.w	r9, [pc, #100]	; 8001be8 <ST7789_DrawRectangle+0x74>
 8001b84:	f8bd 8028 	ldrh.w	r8, [sp, #40]	; 0x28
 8001b88:	4648      	mov	r0, r9
 8001b8a:	2200      	movs	r2, #0
 8001b8c:	f44f 4180 	mov.w	r1, #16384	; 0x4000
 8001b90:	f000 fe3e 	bl	8002810 <HAL_GPIO_WritePin>
 8001b94:	4623      	mov	r3, r4
 8001b96:	463a      	mov	r2, r7
 8001b98:	4621      	mov	r1, r4
 8001b9a:	4630      	mov	r0, r6
 8001b9c:	f8cd 8000 	str.w	r8, [sp]
 8001ba0:	f7ff ff8e 	bl	8001ac0 <ST7789_DrawLine>
 8001ba4:	462b      	mov	r3, r5
 8001ba6:	4632      	mov	r2, r6
 8001ba8:	4621      	mov	r1, r4
 8001baa:	4630      	mov	r0, r6
 8001bac:	f8cd 8000 	str.w	r8, [sp]
 8001bb0:	f7ff ff86 	bl	8001ac0 <ST7789_DrawLine>
 8001bb4:	462b      	mov	r3, r5
 8001bb6:	463a      	mov	r2, r7
 8001bb8:	4629      	mov	r1, r5
 8001bba:	4630      	mov	r0, r6
 8001bbc:	f8cd 8000 	str.w	r8, [sp]
 8001bc0:	f7ff ff7e 	bl	8001ac0 <ST7789_DrawLine>
 8001bc4:	463a      	mov	r2, r7
 8001bc6:	4621      	mov	r1, r4
 8001bc8:	4638      	mov	r0, r7
 8001bca:	462b      	mov	r3, r5
 8001bcc:	f8cd 8000 	str.w	r8, [sp]
 8001bd0:	f7ff ff76 	bl	8001ac0 <ST7789_DrawLine>
 8001bd4:	2201      	movs	r2, #1
 8001bd6:	f44f 4180 	mov.w	r1, #16384	; 0x4000
 8001bda:	4648      	mov	r0, r9
 8001bdc:	b003      	add	sp, #12
 8001bde:	e8bd 43f0 	ldmia.w	sp!, {r4, r5, r6, r7, r8, r9, lr}
 8001be2:	f000 be15 	b.w	8002810 <HAL_GPIO_WritePin>
 8001be6:	bf00      	nop
 8001be8:	40010c00 	.word	0x40010c00

08001bec <ST7789_WriteChar>:
 8001bec:	b082      	sub	sp, #8
 8001bee:	e92d 4ff7 	stmdb	sp!, {r0, r1, r2, r4, r5, r6, r7, r8, r9, sl, fp, lr}
 8001bf2:	4689      	mov	r9, r1
 8001bf4:	4614      	mov	r4, r2
 8001bf6:	4607      	mov	r7, r0
 8001bf8:	f3c3 2507 	ubfx	r5, r3, #8, #8
 8001bfc:	2200      	movs	r2, #0
 8001bfe:	f44f 4180 	mov.w	r1, #16384	; 0x4000
 8001c02:	4821      	ldr	r0, [pc, #132]	; (8001c88 <ST7789_WriteChar+0x9c>)
 8001c04:	b2de      	uxtb	r6, r3
 8001c06:	930d      	str	r3, [sp, #52]	; 0x34
 8001c08:	f8bd 803c 	ldrh.w	r8, [sp, #60]	; 0x3c
 8001c0c:	f000 fe00 	bl	8002810 <HAL_GPIO_WritePin>
 8001c10:	1e6b      	subs	r3, r5, #1
 8001c12:	4649      	mov	r1, r9
 8001c14:	444b      	add	r3, r9
 8001c16:	f04f 0900 	mov.w	r9, #0
 8001c1a:	1e72      	subs	r2, r6, #1
 8001c1c:	3c20      	subs	r4, #32
 8001c1e:	436c      	muls	r4, r5
 8001c20:	443a      	add	r2, r7
 8001c22:	4638      	mov	r0, r7
 8001c24:	b29b      	uxth	r3, r3
 8001c26:	b292      	uxth	r2, r2
 8001c28:	f7ff fe04 	bl	8001834 <ST7789_SetAddressWindow>
 8001c2c:	f8bd a040 	ldrh.w	sl, [sp, #64]	; 0x40
 8001c30:	0064      	lsls	r4, r4, #1
 8001c32:	fa9a fa9a 	rev16.w	sl, sl
 8001c36:	45a9      	cmp	r9, r5
 8001c38:	d30a      	bcc.n	8001c50 <ST7789_WriteChar+0x64>
 8001c3a:	2201      	movs	r2, #1
 8001c3c:	f44f 4180 	mov.w	r1, #16384	; 0x4000
 8001c40:	4811      	ldr	r0, [pc, #68]	; (8001c88 <ST7789_WriteChar+0x9c>)
 8001c42:	f000 fde5 	bl	8002810 <HAL_GPIO_WritePin>
 8001c46:	b003      	add	sp, #12
 8001c48:	e8bd 4ff0 	ldmia.w	sp!, {r4, r5, r6, r7, r8, r9, sl, fp, lr}
 8001c4c:	b002      	add	sp, #8
 8001c4e:	4770      	bx	lr
 8001c50:	2700      	movs	r7, #0
 8001c52:	9b0e      	ldr	r3, [sp, #56]	; 0x38
 8001c54:	f833 b004 	ldrh.w	fp, [r3, r4]
 8001c58:	42be      	cmp	r6, r7
 8001c5a:	d803      	bhi.n	8001c64 <ST7789_WriteChar+0x78>
 8001c5c:	f109 0901 	add.w	r9, r9, #1
 8001c60:	3402      	adds	r4, #2
 8001c62:	e7e8      	b.n	8001c36 <ST7789_WriteChar+0x4a>
 8001c64:	fa0b f307 	lsl.w	r3, fp, r7
 8001c68:	041b      	lsls	r3, r3, #16
 8001c6a:	d509      	bpl.n	8001c80 <ST7789_WriteChar+0x94>
 8001c6c:	fa98 f398 	rev16.w	r3, r8
 8001c70:	f8ad 3004 	strh.w	r3, [sp, #4]
 8001c74:	2102      	movs	r1, #2
 8001c76:	a801      	add	r0, sp, #4
 8001c78:	f7ff fdaa 	bl	80017d0 <ST7789_WriteData>
 8001c7c:	3701      	adds	r7, #1
 8001c7e:	e7eb      	b.n	8001c58 <ST7789_WriteChar+0x6c>
 8001c80:	f8ad a004 	strh.w	sl, [sp, #4]
 8001c84:	e7f6      	b.n	8001c74 <ST7789_WriteChar+0x88>
 8001c86:	bf00      	nop
 8001c88:	40010c00 	.word	0x40010c00

08001c8c <ST7789_WriteString>:
 8001c8c:	b082      	sub	sp, #8
 8001c8e:	e92d 47ff 	stmdb	sp!, {r0, r1, r2, r3, r4, r5, r6, r7, r8, r9, sl, lr}
 8001c92:	4604      	mov	r4, r0
 8001c94:	460d      	mov	r5, r1
 8001c96:	4616      	mov	r6, r2
 8001c98:	f44f 4180 	mov.w	r1, #16384	; 0x4000
 8001c9c:	2200      	movs	r2, #0
 8001c9e:	481b      	ldr	r0, [pc, #108]	; (8001d0c <ST7789_WriteString+0x80>)
 8001ca0:	f8bd 903c 	ldrh.w	r9, [sp, #60]	; 0x3c
 8001ca4:	f8bd a040 	ldrh.w	sl, [sp, #64]	; 0x40
 8001ca8:	930d      	str	r3, [sp, #52]	; 0x34
 8001caa:	fa5f f883 	uxtb.w	r8, r3
 8001cae:	f3c3 2707 	ubfx	r7, r3, #8, #8
 8001cb2:	f000 fdad 	bl	8002810 <HAL_GPIO_WritePin>
 8001cb6:	f816 2b01 	ldrb.w	r2, [r6], #1
 8001cba:	b94a      	cbnz	r2, 8001cd0 <ST7789_WriteString+0x44>
 8001cbc:	2201      	movs	r2, #1
 8001cbe:	f44f 4180 	mov.w	r1, #16384	; 0x4000
 8001cc2:	4812      	ldr	r0, [pc, #72]	; (8001d0c <ST7789_WriteString+0x80>)
 8001cc4:	b004      	add	sp, #16
 8001cc6:	e8bd 47f0 	ldmia.w	sp!, {r4, r5, r6, r7, r8, r9, sl, lr}
 8001cca:	b002      	add	sp, #8
 8001ccc:	f000 bda0 	b.w	8002810 <HAL_GPIO_WritePin>
 8001cd0:	eb04 0308 	add.w	r3, r4, r8
 8001cd4:	2bef      	cmp	r3, #239	; 0xef
 8001cd6:	dd08      	ble.n	8001cea <ST7789_WriteString+0x5e>
 8001cd8:	443d      	add	r5, r7
 8001cda:	b2ad      	uxth	r5, r5
 8001cdc:	19eb      	adds	r3, r5, r7
 8001cde:	2bef      	cmp	r3, #239	; 0xef
 8001ce0:	dcec      	bgt.n	8001cbc <ST7789_WriteString+0x30>
 8001ce2:	2a20      	cmp	r2, #32
 8001ce4:	f04f 0400 	mov.w	r4, #0
 8001ce8:	d0e5      	beq.n	8001cb6 <ST7789_WriteString+0x2a>
 8001cea:	9b0e      	ldr	r3, [sp, #56]	; 0x38
 8001cec:	f88d 8034 	strb.w	r8, [sp, #52]	; 0x34
 8001cf0:	f88d 7035 	strb.w	r7, [sp, #53]	; 0x35
 8001cf4:	4620      	mov	r0, r4
 8001cf6:	9300      	str	r3, [sp, #0]
 8001cf8:	4629      	mov	r1, r5
 8001cfa:	e9cd 9a01 	strd	r9, sl, [sp, #4]
 8001cfe:	9b0d      	ldr	r3, [sp, #52]	; 0x34
 8001d00:	4444      	add	r4, r8
 8001d02:	f7ff ff73 	bl	8001bec <ST7789_WriteChar>
 8001d06:	b2a4      	uxth	r4, r4
 8001d08:	e7d5      	b.n	8001cb6 <ST7789_WriteString+0x2a>
 8001d0a:	bf00      	nop
 8001d0c:	40010c00 	.word	0x40010c00

08001d10 <HAL_MspInit>:
 8001d10:	4b0e      	ldr	r3, [pc, #56]	; (8001d4c <HAL_MspInit+0x3c>)
 8001d12:	b082      	sub	sp, #8
 8001d14:	699a      	ldr	r2, [r3, #24]
 8001d16:	f042 0201 	orr.w	r2, r2, #1
 8001d1a:	619a      	str	r2, [r3, #24]
 8001d1c:	699a      	ldr	r2, [r3, #24]
 8001d1e:	f002 0201 	and.w	r2, r2, #1
 8001d22:	9200      	str	r2, [sp, #0]
 8001d24:	9a00      	ldr	r2, [sp, #0]
 8001d26:	69da      	ldr	r2, [r3, #28]
 8001d28:	f042 5280 	orr.w	r2, r2, #268435456	; 0x10000000
 8001d2c:	61da      	str	r2, [r3, #28]
 8001d2e:	69db      	ldr	r3, [r3, #28]
 8001d30:	4a07      	ldr	r2, [pc, #28]	; (8001d50 <HAL_MspInit+0x40>)
 8001d32:	f003 5380 	and.w	r3, r3, #268435456	; 0x10000000
 8001d36:	9301      	str	r3, [sp, #4]
 8001d38:	9b01      	ldr	r3, [sp, #4]
 8001d3a:	6853      	ldr	r3, [r2, #4]
 8001d3c:	f023 63e0 	bic.w	r3, r3, #117440512	; 0x7000000
 8001d40:	f043 7300 	orr.w	r3, r3, #33554432	; 0x2000000
 8001d44:	6053      	str	r3, [r2, #4]
 8001d46:	b002      	add	sp, #8
 8001d48:	4770      	bx	lr
 8001d4a:	bf00      	nop
 8001d4c:	40021000 	.word	0x40021000
 8001d50:	40010000 	.word	0x40010000

08001d54 <HAL_ADC_MspInit>:
 8001d54:	2210      	movs	r2, #16
 8001d56:	b510      	push	{r4, lr}
 8001d58:	4604      	mov	r4, r0
 8001d5a:	b088      	sub	sp, #32
 8001d5c:	eb0d 0002 	add.w	r0, sp, r2
 8001d60:	2100      	movs	r1, #0
 8001d62:	f001 fd0f 	bl	8003784 <memset>
 8001d66:	6823      	ldr	r3, [r4, #0]
 8001d68:	4a1b      	ldr	r2, [pc, #108]	; (8001dd8 <HAL_ADC_MspInit+0x84>)
 8001d6a:	4293      	cmp	r3, r2
 8001d6c:	d11c      	bne.n	8001da8 <HAL_ADC_MspInit+0x54>
 8001d6e:	4b1b      	ldr	r3, [pc, #108]	; (8001ddc <HAL_ADC_MspInit+0x88>)
 8001d70:	699a      	ldr	r2, [r3, #24]
 8001d72:	f442 7200 	orr.w	r2, r2, #512	; 0x200
 8001d76:	619a      	str	r2, [r3, #24]
 8001d78:	699a      	ldr	r2, [r3, #24]
 8001d7a:	f402 7200 	and.w	r2, r2, #512	; 0x200
 8001d7e:	9200      	str	r2, [sp, #0]
 8001d80:	9a00      	ldr	r2, [sp, #0]
 8001d82:	699a      	ldr	r2, [r3, #24]
 8001d84:	f042 0204 	orr.w	r2, r2, #4
 8001d88:	619a      	str	r2, [r3, #24]
 8001d8a:	699b      	ldr	r3, [r3, #24]
 8001d8c:	f003 0304 	and.w	r3, r3, #4
 8001d90:	9301      	str	r3, [sp, #4]
 8001d92:	9b01      	ldr	r3, [sp, #4]
 8001d94:	2301      	movs	r3, #1
 8001d96:	9304      	str	r3, [sp, #16]
 8001d98:	2303      	movs	r3, #3
 8001d9a:	4811      	ldr	r0, [pc, #68]	; (8001de0 <HAL_ADC_MspInit+0x8c>)
 8001d9c:	a904      	add	r1, sp, #16
 8001d9e:	9305      	str	r3, [sp, #20]
 8001da0:	f000 fc54 	bl	800264c <HAL_GPIO_Init>
 8001da4:	b008      	add	sp, #32
 8001da6:	bd10      	pop	{r4, pc}
 8001da8:	4a0e      	ldr	r2, [pc, #56]	; (8001de4 <HAL_ADC_MspInit+0x90>)
 8001daa:	4293      	cmp	r3, r2
 8001dac:	d1fa      	bne.n	8001da4 <HAL_ADC_MspInit+0x50>
 8001dae:	4b0b      	ldr	r3, [pc, #44]	; (8001ddc <HAL_ADC_MspInit+0x88>)
 8001db0:	699a      	ldr	r2, [r3, #24]
 8001db2:	f442 6280 	orr.w	r2, r2, #1024	; 0x400
 8001db6:	619a      	str	r2, [r3, #24]
 8001db8:	699a      	ldr	r2, [r3, #24]
 8001dba:	f402 6280 	and.w	r2, r2, #1024	; 0x400
 8001dbe:	9202      	str	r2, [sp, #8]
 8001dc0:	9a02      	ldr	r2, [sp, #8]
 8001dc2:	699a      	ldr	r2, [r3, #24]
 8001dc4:	f042 0204 	orr.w	r2, r2, #4
 8001dc8:	619a      	str	r2, [r3, #24]
 8001dca:	699b      	ldr	r3, [r3, #24]
 8001dcc:	f003 0304 	and.w	r3, r3, #4
 8001dd0:	9303      	str	r3, [sp, #12]
 8001dd2:	9b03      	ldr	r3, [sp, #12]
 8001dd4:	2302      	movs	r3, #2
 8001dd6:	e7de      	b.n	8001d96 <HAL_ADC_MspInit+0x42>
 8001dd8:	40012400 	.word	0x40012400
 8001ddc:	40021000 	.word	0x40021000
 8001de0:	40010800 	.word	0x40010800
 8001de4:	40012800 	.word	0x40012800

08001de8 <HAL_SPI_MspInit>:
 8001de8:	b510      	push	{r4, lr}
 8001dea:	4604      	mov	r4, r0
 8001dec:	b086      	sub	sp, #24
 8001dee:	2210      	movs	r2, #16
 8001df0:	2100      	movs	r1, #0
 8001df2:	a802      	add	r0, sp, #8
 8001df4:	f001 fcc6 	bl	8003784 <memset>
 8001df8:	6822      	ldr	r2, [r4, #0]
 8001dfa:	4b12      	ldr	r3, [pc, #72]	; (8001e44 <HAL_SPI_MspInit+0x5c>)
 8001dfc:	429a      	cmp	r2, r3
 8001dfe:	d11e      	bne.n	8001e3e <HAL_SPI_MspInit+0x56>
 8001e00:	f503 33ec 	add.w	r3, r3, #120832	; 0x1d800
 8001e04:	69da      	ldr	r2, [r3, #28]
 8001e06:	4810      	ldr	r0, [pc, #64]	; (8001e48 <HAL_SPI_MspInit+0x60>)
 8001e08:	f442 4280 	orr.w	r2, r2, #16384	; 0x4000
 8001e0c:	61da      	str	r2, [r3, #28]
 8001e0e:	69da      	ldr	r2, [r3, #28]
 8001e10:	a902      	add	r1, sp, #8
 8001e12:	f402 4280 	and.w	r2, r2, #16384	; 0x4000
 8001e16:	9200      	str	r2, [sp, #0]
 8001e18:	9a00      	ldr	r2, [sp, #0]
 8001e1a:	699a      	ldr	r2, [r3, #24]
 8001e1c:	f042 0208 	orr.w	r2, r2, #8
 8001e20:	619a      	str	r2, [r3, #24]
 8001e22:	699b      	ldr	r3, [r3, #24]
 8001e24:	f44f 4220 	mov.w	r2, #40960	; 0xa000
 8001e28:	f003 0308 	and.w	r3, r3, #8
 8001e2c:	9301      	str	r3, [sp, #4]
 8001e2e:	9b01      	ldr	r3, [sp, #4]
 8001e30:	2302      	movs	r3, #2
 8001e32:	e9cd 2302 	strd	r2, r3, [sp, #8]
 8001e36:	2303      	movs	r3, #3
 8001e38:	9305      	str	r3, [sp, #20]
 8001e3a:	f000 fc07 	bl	800264c <HAL_GPIO_Init>
 8001e3e:	b006      	add	sp, #24
 8001e40:	bd10      	pop	{r4, pc}
 8001e42:	bf00      	nop
 8001e44:	40003800 	.word	0x40003800
 8001e48:	40010c00 	.word	0x40010c00

08001e4c <HAL_TIM_Encoder_MspInit>:
 8001e4c:	2210      	movs	r2, #16
 8001e4e:	b510      	push	{r4, lr}
 8001e50:	4604      	mov	r4, r0
 8001e52:	b088      	sub	sp, #32
 8001e54:	2100      	movs	r1, #0
 8001e56:	eb0d 0002 	add.w	r0, sp, r2
 8001e5a:	f001 fc93 	bl	8003784 <memset>
 8001e5e:	6823      	ldr	r3, [r4, #0]
 8001e60:	f1b3 4f80 	cmp.w	r3, #1073741824	; 0x40000000
 8001e64:	d137      	bne.n	8001ed6 <HAL_TIM_Encoder_MspInit+0x8a>
 8001e66:	f503 3304 	add.w	r3, r3, #135168	; 0x21000
 8001e6a:	69da      	ldr	r2, [r3, #28]
 8001e6c:	2400      	movs	r4, #0
 8001e6e:	f042 0201 	orr.w	r2, r2, #1
 8001e72:	61da      	str	r2, [r3, #28]
 8001e74:	69da      	ldr	r2, [r3, #28]
 8001e76:	4819      	ldr	r0, [pc, #100]	; (8001edc <HAL_TIM_Encoder_MspInit+0x90>)
 8001e78:	f002 0201 	and.w	r2, r2, #1
 8001e7c:	9201      	str	r2, [sp, #4]
 8001e7e:	9a01      	ldr	r2, [sp, #4]
 8001e80:	699a      	ldr	r2, [r3, #24]
 8001e82:	a904      	add	r1, sp, #16
 8001e84:	f042 0204 	orr.w	r2, r2, #4
 8001e88:	619a      	str	r2, [r3, #24]
 8001e8a:	699a      	ldr	r2, [r3, #24]
 8001e8c:	f002 0204 	and.w	r2, r2, #4
 8001e90:	9202      	str	r2, [sp, #8]
 8001e92:	9a02      	ldr	r2, [sp, #8]
 8001e94:	699a      	ldr	r2, [r3, #24]
 8001e96:	f042 0208 	orr.w	r2, r2, #8
 8001e9a:	619a      	str	r2, [r3, #24]
 8001e9c:	699b      	ldr	r3, [r3, #24]
 8001e9e:	9406      	str	r4, [sp, #24]
 8001ea0:	f003 0308 	and.w	r3, r3, #8
 8001ea4:	9303      	str	r3, [sp, #12]
 8001ea6:	9b03      	ldr	r3, [sp, #12]
 8001ea8:	f44f 4300 	mov.w	r3, #32768	; 0x8000
 8001eac:	e9cd 3404 	strd	r3, r4, [sp, #16]
 8001eb0:	f000 fbcc 	bl	800264c <HAL_GPIO_Init>
 8001eb4:	2308      	movs	r3, #8
 8001eb6:	480a      	ldr	r0, [pc, #40]	; (8001ee0 <HAL_TIM_Encoder_MspInit+0x94>)
 8001eb8:	a904      	add	r1, sp, #16
 8001eba:	e9cd 3404 	strd	r3, r4, [sp, #16]
 8001ebe:	9406      	str	r4, [sp, #24]
 8001ec0:	f000 fbc4 	bl	800264c <HAL_GPIO_Init>
 8001ec4:	4a07      	ldr	r2, [pc, #28]	; (8001ee4 <HAL_TIM_Encoder_MspInit+0x98>)
 8001ec6:	6853      	ldr	r3, [r2, #4]
 8001ec8:	f423 7340 	bic.w	r3, r3, #768	; 0x300
 8001ecc:	f043 63e0 	orr.w	r3, r3, #117440512	; 0x7000000
 8001ed0:	f443 7380 	orr.w	r3, r3, #256	; 0x100
 8001ed4:	6053      	str	r3, [r2, #4]
 8001ed6:	b008      	add	sp, #32
 8001ed8:	bd10      	pop	{r4, pc}
 8001eda:	bf00      	nop
 8001edc:	40010800 	.word	0x40010800
 8001ee0:	40010c00 	.word	0x40010c00
 8001ee4:	40010000 	.word	0x40010000

08001ee8 <HAL_TIM_PWM_MspInit>:
 8001ee8:	6802      	ldr	r2, [r0, #0]
 8001eea:	4b08      	ldr	r3, [pc, #32]	; (8001f0c <HAL_TIM_PWM_MspInit+0x24>)
 8001eec:	b082      	sub	sp, #8
 8001eee:	429a      	cmp	r2, r3
 8001ef0:	d10a      	bne.n	8001f08 <HAL_TIM_PWM_MspInit+0x20>
 8001ef2:	f503 3302 	add.w	r3, r3, #133120	; 0x20800
 8001ef6:	69da      	ldr	r2, [r3, #28]
 8001ef8:	f042 0204 	orr.w	r2, r2, #4
 8001efc:	61da      	str	r2, [r3, #28]
 8001efe:	69db      	ldr	r3, [r3, #28]
 8001f00:	f003 0304 	and.w	r3, r3, #4
 8001f04:	9301      	str	r3, [sp, #4]
 8001f06:	9b01      	ldr	r3, [sp, #4]
 8001f08:	b002      	add	sp, #8
 8001f0a:	4770      	bx	lr
 8001f0c:	40000800 	.word	0x40000800

08001f10 <HAL_TIM_MspPostInit>:
 8001f10:	b510      	push	{r4, lr}
 8001f12:	4604      	mov	r4, r0
 8001f14:	b086      	sub	sp, #24
 8001f16:	2210      	movs	r2, #16
 8001f18:	2100      	movs	r1, #0
 8001f1a:	a802      	add	r0, sp, #8
 8001f1c:	f001 fc32 	bl	8003784 <memset>
 8001f20:	6822      	ldr	r2, [r4, #0]
 8001f22:	4b0c      	ldr	r3, [pc, #48]	; (8001f54 <HAL_TIM_MspPostInit+0x44>)
 8001f24:	429a      	cmp	r2, r3
 8001f26:	d113      	bne.n	8001f50 <HAL_TIM_MspPostInit+0x40>
 8001f28:	f503 3302 	add.w	r3, r3, #133120	; 0x20800
 8001f2c:	699a      	ldr	r2, [r3, #24]
 8001f2e:	480a      	ldr	r0, [pc, #40]	; (8001f58 <HAL_TIM_MspPostInit+0x48>)
 8001f30:	f042 0208 	orr.w	r2, r2, #8
 8001f34:	619a      	str	r2, [r3, #24]
 8001f36:	699b      	ldr	r3, [r3, #24]
 8001f38:	2240      	movs	r2, #64	; 0x40
 8001f3a:	f003 0308 	and.w	r3, r3, #8
 8001f3e:	9301      	str	r3, [sp, #4]
 8001f40:	9b01      	ldr	r3, [sp, #4]
 8001f42:	2302      	movs	r3, #2
 8001f44:	a902      	add	r1, sp, #8
 8001f46:	e9cd 2302 	strd	r2, r3, [sp, #8]
 8001f4a:	9305      	str	r3, [sp, #20]
 8001f4c:	f000 fb7e 	bl	800264c <HAL_GPIO_Init>
 8001f50:	b006      	add	sp, #24
 8001f52:	bd10      	pop	{r4, pc}
 8001f54:	40000800 	.word	0x40000800
 8001f58:	40010c00 	.word	0x40010c00

08001f5c <NMI_Handler>:
 8001f5c:	e7fe      	b.n	8001f5c <NMI_Handler>

08001f5e <HardFault_Handler>:
 8001f5e:	e7fe      	b.n	8001f5e <HardFault_Handler>

08001f60 <MemManage_Handler>:
 8001f60:	e7fe      	b.n	8001f60 <MemManage_Handler>

08001f62 <BusFault_Handler>:
 8001f62:	e7fe      	b.n	8001f62 <BusFault_Handler>

08001f64 <UsageFault_Handler>:
 8001f64:	e7fe      	b.n	8001f64 <UsageFault_Handler>

08001f66 <SVC_Handler>:
 8001f66:	4770      	bx	lr

08001f68 <DebugMon_Handler>:
 8001f68:	4770      	bx	lr

08001f6a <PendSV_Handler>:
 8001f6a:	4770      	bx	lr

08001f6c <SysTick_Handler>:
 8001f6c:	f000 b87e 	b.w	800206c <HAL_IncTick>

08001f70 <_sbrk>:
 8001f70:	4b0b      	ldr	r3, [pc, #44]	; (8001fa0 <_sbrk+0x30>)
 8001f72:	4602      	mov	r2, r0
 8001f74:	6819      	ldr	r1, [r3, #0]
 8001f76:	b510      	push	{r4, lr}
 8001f78:	b909      	cbnz	r1, 8001f7e <_sbrk+0xe>
 8001f7a:	490a      	ldr	r1, [pc, #40]	; (8001fa4 <_sbrk+0x34>)
 8001f7c:	6019      	str	r1, [r3, #0]
 8001f7e:	6818      	ldr	r0, [r3, #0]
 8001f80:	4909      	ldr	r1, [pc, #36]	; (8001fa8 <_sbrk+0x38>)
 8001f82:	4c0a      	ldr	r4, [pc, #40]	; (8001fac <_sbrk+0x3c>)
 8001f84:	4402      	add	r2, r0
 8001f86:	1b09      	subs	r1, r1, r4
 8001f88:	428a      	cmp	r2, r1
 8001f8a:	d906      	bls.n	8001f9a <_sbrk+0x2a>
 8001f8c:	f001 fbd0 	bl	8003730 <__errno>
 8001f90:	230c      	movs	r3, #12
 8001f92:	6003      	str	r3, [r0, #0]
 8001f94:	f04f 30ff 	mov.w	r0, #4294967295
 8001f98:	bd10      	pop	{r4, pc}
 8001f9a:	601a      	str	r2, [r3, #0]
 8001f9c:	e7fc      	b.n	8001f98 <_sbrk+0x28>
 8001f9e:	bf00      	nop
 8001fa0:	200000d8 	.word	0x200000d8
 8001fa4:	20000258 	.word	0x20000258
 8001fa8:	20005000 	.word	0x20005000
 8001fac:	00000400 	.word	0x00000400

08001fb0 <SystemInit>:
 8001fb0:	4770      	bx	lr
	...

08001fb4 <Reset_Handler>:
 8001fb4:	2100      	movs	r1, #0
 8001fb6:	e003      	b.n	8001fc0 <LoopCopyDataInit>

08001fb8 <CopyDataInit>:
 8001fb8:	4b0b      	ldr	r3, [pc, #44]	; (8001fe8 <LoopFillZerobss+0x14>)
 8001fba:	585b      	ldr	r3, [r3, r1]
 8001fbc:	5043      	str	r3, [r0, r1]
 8001fbe:	3104      	adds	r1, #4

08001fc0 <LoopCopyDataInit>:
 8001fc0:	480a      	ldr	r0, [pc, #40]	; (8001fec <LoopFillZerobss+0x18>)
 8001fc2:	4b0b      	ldr	r3, [pc, #44]	; (8001ff0 <LoopFillZerobss+0x1c>)
 8001fc4:	1842      	adds	r2, r0, r1
 8001fc6:	429a      	cmp	r2, r3
 8001fc8:	d3f6      	bcc.n	8001fb8 <CopyDataInit>
 8001fca:	4a0a      	ldr	r2, [pc, #40]	; (8001ff4 <LoopFillZerobss+0x20>)
 8001fcc:	e002      	b.n	8001fd4 <LoopFillZerobss>

08001fce <FillZerobss>:
 8001fce:	2300      	movs	r3, #0
 8001fd0:	f842 3b04 	str.w	r3, [r2], #4

08001fd4 <LoopFillZerobss>:
 8001fd4:	4b08      	ldr	r3, [pc, #32]	; (8001ff8 <LoopFillZerobss+0x24>)
 8001fd6:	429a      	cmp	r2, r3
 8001fd8:	d3f9      	bcc.n	8001fce <FillZerobss>
 8001fda:	f7ff ffe9 	bl	8001fb0 <SystemInit>
 8001fde:	f001 fbad 	bl	800373c <__libc_init_array>
 8001fe2:	f7ff f98d 	bl	8001300 <main>
 8001fe6:	4770      	bx	lr
 8001fe8:	0800548c 	.word	0x0800548c
 8001fec:	20000000 	.word	0x20000000
 8001ff0:	200000a4 	.word	0x200000a4
 8001ff4:	200000a4 	.word	0x200000a4
 8001ff8:	20000254 	.word	0x20000254

08001ffc <ADC1_2_IRQHandler>:
 8001ffc:	e7fe      	b.n	8001ffc <ADC1_2_IRQHandler>
	...

08002000 <HAL_InitTick>:
 8002000:	b538      	push	{r3, r4, r5, lr}
 8002002:	4b0e      	ldr	r3, [pc, #56]	; (800203c <HAL_InitTick+0x3c>)
 8002004:	4605      	mov	r5, r0
 8002006:	7818      	ldrb	r0, [r3, #0]
 8002008:	f44f 737a 	mov.w	r3, #1000	; 0x3e8
 800200c:	fbb3 f3f0 	udiv	r3, r3, r0
 8002010:	4a0b      	ldr	r2, [pc, #44]	; (8002040 <HAL_InitTick+0x40>)
 8002012:	6810      	ldr	r0, [r2, #0]
 8002014:	fbb0 f0f3 	udiv	r0, r0, r3
 8002018:	f000 fb02 	bl	8002620 <HAL_SYSTICK_Config>
 800201c:	4604      	mov	r4, r0
 800201e:	b958      	cbnz	r0, 8002038 <HAL_InitTick+0x38>
 8002020:	2d0f      	cmp	r5, #15
 8002022:	d809      	bhi.n	8002038 <HAL_InitTick+0x38>
 8002024:	4602      	mov	r2, r0
 8002026:	4629      	mov	r1, r5
 8002028:	f04f 30ff 	mov.w	r0, #4294967295
 800202c:	f000 fac6 	bl	80025bc <HAL_NVIC_SetPriority>
 8002030:	4620      	mov	r0, r4
 8002032:	4b04      	ldr	r3, [pc, #16]	; (8002044 <HAL_InitTick+0x44>)
 8002034:	601d      	str	r5, [r3, #0]
 8002036:	bd38      	pop	{r3, r4, r5, pc}
 8002038:	2001      	movs	r0, #1
 800203a:	e7fc      	b.n	8002036 <HAL_InitTick+0x36>
 800203c:	20000038 	.word	0x20000038
 8002040:	20000034 	.word	0x20000034
 8002044:	2000003c 	.word	0x2000003c

08002048 <HAL_Init>:
 8002048:	4a07      	ldr	r2, [pc, #28]	; (8002068 <HAL_Init+0x20>)
 800204a:	b508      	push	{r3, lr}
 800204c:	6813      	ldr	r3, [r2, #0]
 800204e:	2003      	movs	r0, #3
 8002050:	f043 0310 	orr.w	r3, r3, #16
 8002054:	6013      	str	r3, [r2, #0]
 8002056:	f000 fa9f 	bl	8002598 <HAL_NVIC_SetPriorityGrouping>
 800205a:	2000      	movs	r0, #0
 800205c:	f7ff ffd0 	bl	8002000 <HAL_InitTick>
 8002060:	f7ff fe56 	bl	8001d10 <HAL_MspInit>
 8002064:	2000      	movs	r0, #0
 8002066:	bd08      	pop	{r3, pc}
 8002068:	40022000 	.word	0x40022000

0800206c <HAL_IncTick>:
 800206c:	4a03      	ldr	r2, [pc, #12]	; (800207c <HAL_IncTick+0x10>)
 800206e:	4b04      	ldr	r3, [pc, #16]	; (8002080 <HAL_IncTick+0x14>)
 8002070:	6811      	ldr	r1, [r2, #0]
 8002072:	781b      	ldrb	r3, [r3, #0]
 8002074:	440b      	add	r3, r1
 8002076:	6013      	str	r3, [r2, #0]
 8002078:	4770      	bx	lr
 800207a:	bf00      	nop
 800207c:	20000240 	.word	0x20000240
 8002080:	20000038 	.word	0x20000038

08002084 <HAL_GetTick>:
 8002084:	4b01      	ldr	r3, [pc, #4]	; (800208c <HAL_GetTick+0x8>)
 8002086:	6818      	ldr	r0, [r3, #0]
 8002088:	4770      	bx	lr
 800208a:	bf00      	nop
 800208c:	20000240 	.word	0x20000240

08002090 <HAL_Delay>:
 8002090:	b538      	push	{r3, r4, r5, lr}
 8002092:	4604      	mov	r4, r0
 8002094:	f7ff fff6 	bl	8002084 <HAL_GetTick>
 8002098:	4605      	mov	r5, r0
 800209a:	1c63      	adds	r3, r4, #1
 800209c:	bf1e      	ittt	ne
 800209e:	4b04      	ldrne	r3, [pc, #16]	; (80020b0 <HAL_Delay+0x20>)
 80020a0:	781b      	ldrbne	r3, [r3, #0]
 80020a2:	18e4      	addne	r4, r4, r3
 80020a4:	f7ff ffee 	bl	8002084 <HAL_GetTick>
 80020a8:	1b43      	subs	r3, r0, r5
 80020aa:	42a3      	cmp	r3, r4
 80020ac:	d3fa      	bcc.n	80020a4 <HAL_Delay+0x14>
 80020ae:	bd38      	pop	{r3, r4, r5, pc}
 80020b0:	20000038 	.word	0x20000038

080020b4 <HAL_ADC_PollForConversion>:
 80020b4:	b5f7      	push	{r0, r1, r2, r4, r5, r6, r7, lr}
 80020b6:	2600      	movs	r6, #0
 80020b8:	4604      	mov	r4, r0
 80020ba:	460d      	mov	r5, r1
 80020bc:	9601      	str	r6, [sp, #4]
 80020be:	f7ff ffe1 	bl	8002084 <HAL_GetTick>
 80020c2:	6823      	ldr	r3, [r4, #0]
 80020c4:	4607      	mov	r7, r0
 80020c6:	689a      	ldr	r2, [r3, #8]
 80020c8:	05d2      	lsls	r2, r2, #23
 80020ca:	d508      	bpl.n	80020de <HAL_ADC_PollForConversion+0x2a>
 80020cc:	2001      	movs	r0, #1
 80020ce:	6aa3      	ldr	r3, [r4, #40]	; 0x28
 80020d0:	f884 6024 	strb.w	r6, [r4, #36]	; 0x24
 80020d4:	f043 0320 	orr.w	r3, r3, #32
 80020d8:	62a3      	str	r3, [r4, #40]	; 0x28
 80020da:	b003      	add	sp, #12
 80020dc:	bdf0      	pop	{r4, r5, r6, r7, pc}
 80020de:	685a      	ldr	r2, [r3, #4]
 80020e0:	05d6      	lsls	r6, r2, #23
 80020e2:	d403      	bmi.n	80020ec <HAL_ADC_PollForConversion+0x38>
 80020e4:	6adb      	ldr	r3, [r3, #44]	; 0x2c
 80020e6:	f413 0f70 	tst.w	r3, #15728640	; 0xf00000
 80020ea:	d03a      	beq.n	8002162 <HAL_ADC_PollForConversion+0xae>
 80020ec:	4b39      	ldr	r3, [pc, #228]	; (80021d4 <HAL_ADC_PollForConversion+0x120>)
 80020ee:	2002      	movs	r0, #2
 80020f0:	681e      	ldr	r6, [r3, #0]
 80020f2:	f000 fe8d 	bl	8002e10 <HAL_RCCEx_GetPeriphCLKFreq>
 80020f6:	6823      	ldr	r3, [r4, #0]
 80020f8:	4a37      	ldr	r2, [pc, #220]	; (80021d8 <HAL_ADC_PollForConversion+0x124>)
 80020fa:	6919      	ldr	r1, [r3, #16]
 80020fc:	fbb6 f6f0 	udiv	r6, r6, r0
 8002100:	4211      	tst	r1, r2
 8002102:	4a36      	ldr	r2, [pc, #216]	; (80021dc <HAL_ADC_PollForConversion+0x128>)
 8002104:	d14d      	bne.n	80021a2 <HAL_ADC_PollForConversion+0xee>
 8002106:	68d8      	ldr	r0, [r3, #12]
 8002108:	4935      	ldr	r1, [pc, #212]	; (80021e0 <HAL_ADC_PollForConversion+0x12c>)
 800210a:	4208      	tst	r0, r1
 800210c:	d149      	bne.n	80021a2 <HAL_ADC_PollForConversion+0xee>
 800210e:	6919      	ldr	r1, [r3, #16]
 8002110:	4211      	tst	r1, r2
 8002112:	d157      	bne.n	80021c4 <HAL_ADC_PollForConversion+0x110>
 8002114:	68da      	ldr	r2, [r3, #12]
 8002116:	4b33      	ldr	r3, [pc, #204]	; (80021e4 <HAL_ADC_PollForConversion+0x130>)
 8002118:	421a      	tst	r2, r3
 800211a:	bf14      	ite	ne
 800211c:	2329      	movne	r3, #41	; 0x29
 800211e:	2314      	moveq	r3, #20
 8002120:	435e      	muls	r6, r3
 8002122:	9b01      	ldr	r3, [sp, #4]
 8002124:	42b3      	cmp	r3, r6
 8002126:	d220      	bcs.n	800216a <HAL_ADC_PollForConversion+0xb6>
 8002128:	1c6a      	adds	r2, r5, #1
 800212a:	d005      	beq.n	8002138 <HAL_ADC_PollForConversion+0x84>
 800212c:	b185      	cbz	r5, 8002150 <HAL_ADC_PollForConversion+0x9c>
 800212e:	f7ff ffa9 	bl	8002084 <HAL_GetTick>
 8002132:	1bc0      	subs	r0, r0, r7
 8002134:	42a8      	cmp	r0, r5
 8002136:	d80b      	bhi.n	8002150 <HAL_ADC_PollForConversion+0x9c>
 8002138:	9b01      	ldr	r3, [sp, #4]
 800213a:	3301      	adds	r3, #1
 800213c:	9301      	str	r3, [sp, #4]
 800213e:	e7f0      	b.n	8002122 <HAL_ADC_PollForConversion+0x6e>
 8002140:	1c68      	adds	r0, r5, #1
 8002142:	d00f      	beq.n	8002164 <HAL_ADC_PollForConversion+0xb0>
 8002144:	b125      	cbz	r5, 8002150 <HAL_ADC_PollForConversion+0x9c>
 8002146:	f7ff ff9d 	bl	8002084 <HAL_GetTick>
 800214a:	1bc0      	subs	r0, r0, r7
 800214c:	42a8      	cmp	r0, r5
 800214e:	d908      	bls.n	8002162 <HAL_ADC_PollForConversion+0xae>
 8002150:	6aa3      	ldr	r3, [r4, #40]	; 0x28
 8002152:	2003      	movs	r0, #3
 8002154:	f043 0304 	orr.w	r3, r3, #4
 8002158:	62a3      	str	r3, [r4, #40]	; 0x28
 800215a:	2300      	movs	r3, #0
 800215c:	f884 3024 	strb.w	r3, [r4, #36]	; 0x24
 8002160:	e7bb      	b.n	80020da <HAL_ADC_PollForConversion+0x26>
 8002162:	6822      	ldr	r2, [r4, #0]
 8002164:	6813      	ldr	r3, [r2, #0]
 8002166:	0799      	lsls	r1, r3, #30
 8002168:	d5ea      	bpl.n	8002140 <HAL_ADC_PollForConversion+0x8c>
 800216a:	f06f 0312 	mvn.w	r3, #18
 800216e:	6822      	ldr	r2, [r4, #0]
 8002170:	6013      	str	r3, [r2, #0]
 8002172:	6aa3      	ldr	r3, [r4, #40]	; 0x28
 8002174:	f443 7300 	orr.w	r3, r3, #512	; 0x200
 8002178:	62a3      	str	r3, [r4, #40]	; 0x28
 800217a:	6893      	ldr	r3, [r2, #8]
 800217c:	f403 2360 	and.w	r3, r3, #917504	; 0xe0000
 8002180:	f5b3 2f60 	cmp.w	r3, #917504	; 0xe0000
 8002184:	d124      	bne.n	80021d0 <HAL_ADC_PollForConversion+0x11c>
 8002186:	7b20      	ldrb	r0, [r4, #12]
 8002188:	bb10      	cbnz	r0, 80021d0 <HAL_ADC_PollForConversion+0x11c>
 800218a:	6aa3      	ldr	r3, [r4, #40]	; 0x28
 800218c:	f423 7380 	bic.w	r3, r3, #256	; 0x100
 8002190:	62a3      	str	r3, [r4, #40]	; 0x28
 8002192:	6aa3      	ldr	r3, [r4, #40]	; 0x28
 8002194:	04db      	lsls	r3, r3, #19
 8002196:	d41b      	bmi.n	80021d0 <HAL_ADC_PollForConversion+0x11c>
 8002198:	6aa3      	ldr	r3, [r4, #40]	; 0x28
 800219a:	f043 0301 	orr.w	r3, r3, #1
 800219e:	62a3      	str	r3, [r4, #40]	; 0x28
 80021a0:	e79b      	b.n	80020da <HAL_ADC_PollForConversion+0x26>
 80021a2:	6919      	ldr	r1, [r3, #16]
 80021a4:	4211      	tst	r1, r2
 80021a6:	d103      	bne.n	80021b0 <HAL_ADC_PollForConversion+0xfc>
 80021a8:	68d9      	ldr	r1, [r3, #12]
 80021aa:	4a0e      	ldr	r2, [pc, #56]	; (80021e4 <HAL_ADC_PollForConversion+0x130>)
 80021ac:	4211      	tst	r1, r2
 80021ae:	d00b      	beq.n	80021c8 <HAL_ADC_PollForConversion+0x114>
 80021b0:	6919      	ldr	r1, [r3, #16]
 80021b2:	4a0d      	ldr	r2, [pc, #52]	; (80021e8 <HAL_ADC_PollForConversion+0x134>)
 80021b4:	4211      	tst	r1, r2
 80021b6:	d109      	bne.n	80021cc <HAL_ADC_PollForConversion+0x118>
 80021b8:	68db      	ldr	r3, [r3, #12]
 80021ba:	4213      	tst	r3, r2
 80021bc:	bf14      	ite	ne
 80021be:	23fc      	movne	r3, #252	; 0xfc
 80021c0:	2354      	moveq	r3, #84	; 0x54
 80021c2:	e7ad      	b.n	8002120 <HAL_ADC_PollForConversion+0x6c>
 80021c4:	2329      	movs	r3, #41	; 0x29
 80021c6:	e7ab      	b.n	8002120 <HAL_ADC_PollForConversion+0x6c>
 80021c8:	2354      	movs	r3, #84	; 0x54
 80021ca:	e7a9      	b.n	8002120 <HAL_ADC_PollForConversion+0x6c>
 80021cc:	23fc      	movs	r3, #252	; 0xfc
 80021ce:	e7a7      	b.n	8002120 <HAL_ADC_PollForConversion+0x6c>
 80021d0:	2000      	movs	r0, #0
 80021d2:	e782      	b.n	80020da <HAL_ADC_PollForConversion+0x26>
 80021d4:	20000034 	.word	0x20000034
 80021d8:	24924924 	.word	0x24924924
 80021dc:	12492492 	.word	0x12492492
 80021e0:	00924924 	.word	0x00924924
 80021e4:	00492492 	.word	0x00492492
 80021e8:	00249249 	.word	0x00249249

080021ec <HAL_ADC_GetValue>:
 80021ec:	6803      	ldr	r3, [r0, #0]
 80021ee:	6cd8      	ldr	r0, [r3, #76]	; 0x4c
 80021f0:	4770      	bx	lr
	...

080021f4 <HAL_ADC_ConfigChannel>:
 80021f4:	2300      	movs	r3, #0
 80021f6:	b573      	push	{r0, r1, r4, r5, r6, lr}
 80021f8:	9301      	str	r3, [sp, #4]
 80021fa:	f890 3024 	ldrb.w	r3, [r0, #36]	; 0x24
 80021fe:	4604      	mov	r4, r0
 8002200:	2b01      	cmp	r3, #1
 8002202:	d06c      	beq.n	80022de <HAL_ADC_ConfigChannel+0xea>
 8002204:	2301      	movs	r3, #1
 8002206:	f880 3024 	strb.w	r3, [r0, #36]	; 0x24
 800220a:	684d      	ldr	r5, [r1, #4]
 800220c:	6802      	ldr	r2, [r0, #0]
 800220e:	2d06      	cmp	r5, #6
 8002210:	6808      	ldr	r0, [r1, #0]
 8002212:	eb05 0385 	add.w	r3, r5, r5, lsl #2
 8002216:	d822      	bhi.n	800225e <HAL_ADC_ConfigChannel+0x6a>
 8002218:	261f      	movs	r6, #31
 800221a:	6b55      	ldr	r5, [r2, #52]	; 0x34
 800221c:	3b05      	subs	r3, #5
 800221e:	409e      	lsls	r6, r3
 8002220:	ea25 0506 	bic.w	r5, r5, r6
 8002224:	fa00 f303 	lsl.w	r3, r0, r3
 8002228:	432b      	orrs	r3, r5
 800222a:	6353      	str	r3, [r2, #52]	; 0x34
 800222c:	2809      	cmp	r0, #9
 800222e:	688b      	ldr	r3, [r1, #8]
 8002230:	eb00 0540 	add.w	r5, r0, r0, lsl #1
 8002234:	f04f 0107 	mov.w	r1, #7
 8002238:	d929      	bls.n	800228e <HAL_ADC_ConfigChannel+0x9a>
 800223a:	68d6      	ldr	r6, [r2, #12]
 800223c:	3d1e      	subs	r5, #30
 800223e:	40a9      	lsls	r1, r5
 8002240:	ea26 0101 	bic.w	r1, r6, r1
 8002244:	40ab      	lsls	r3, r5
 8002246:	430b      	orrs	r3, r1
 8002248:	60d3      	str	r3, [r2, #12]
 800224a:	f1a0 0310 	sub.w	r3, r0, #16
 800224e:	2b01      	cmp	r3, #1
 8002250:	d925      	bls.n	800229e <HAL_ADC_ConfigChannel+0xaa>
 8002252:	2000      	movs	r0, #0
 8002254:	2300      	movs	r3, #0
 8002256:	f884 3024 	strb.w	r3, [r4, #36]	; 0x24
 800225a:	b002      	add	sp, #8
 800225c:	bd70      	pop	{r4, r5, r6, pc}
 800225e:	2d0c      	cmp	r5, #12
 8002260:	f04f 051f 	mov.w	r5, #31
 8002264:	d809      	bhi.n	800227a <HAL_ADC_ConfigChannel+0x86>
 8002266:	6b16      	ldr	r6, [r2, #48]	; 0x30
 8002268:	3b23      	subs	r3, #35	; 0x23
 800226a:	409d      	lsls	r5, r3
 800226c:	ea26 0505 	bic.w	r5, r6, r5
 8002270:	fa00 f303 	lsl.w	r3, r0, r3
 8002274:	432b      	orrs	r3, r5
 8002276:	6313      	str	r3, [r2, #48]	; 0x30
 8002278:	e7d8      	b.n	800222c <HAL_ADC_ConfigChannel+0x38>
 800227a:	6ad6      	ldr	r6, [r2, #44]	; 0x2c
 800227c:	3b41      	subs	r3, #65	; 0x41
 800227e:	409d      	lsls	r5, r3
 8002280:	ea26 0505 	bic.w	r5, r6, r5
 8002284:	fa00 f303 	lsl.w	r3, r0, r3
 8002288:	432b      	orrs	r3, r5
 800228a:	62d3      	str	r3, [r2, #44]	; 0x2c
 800228c:	e7ce      	b.n	800222c <HAL_ADC_ConfigChannel+0x38>
 800228e:	6910      	ldr	r0, [r2, #16]
 8002290:	40a9      	lsls	r1, r5
 8002292:	ea20 0101 	bic.w	r1, r0, r1
 8002296:	40ab      	lsls	r3, r5
 8002298:	430b      	orrs	r3, r1
 800229a:	6113      	str	r3, [r2, #16]
 800229c:	e7d9      	b.n	8002252 <HAL_ADC_ConfigChannel+0x5e>
 800229e:	4b11      	ldr	r3, [pc, #68]	; (80022e4 <HAL_ADC_ConfigChannel+0xf0>)
 80022a0:	429a      	cmp	r2, r3
 80022a2:	d116      	bne.n	80022d2 <HAL_ADC_ConfigChannel+0xde>
 80022a4:	6893      	ldr	r3, [r2, #8]
 80022a6:	021b      	lsls	r3, r3, #8
 80022a8:	d4d3      	bmi.n	8002252 <HAL_ADC_ConfigChannel+0x5e>
 80022aa:	6893      	ldr	r3, [r2, #8]
 80022ac:	2810      	cmp	r0, #16
 80022ae:	f443 0300 	orr.w	r3, r3, #8388608	; 0x800000
 80022b2:	6093      	str	r3, [r2, #8]
 80022b4:	d1cd      	bne.n	8002252 <HAL_ADC_ConfigChannel+0x5e>
 80022b6:	4b0c      	ldr	r3, [pc, #48]	; (80022e8 <HAL_ADC_ConfigChannel+0xf4>)
 80022b8:	4a0c      	ldr	r2, [pc, #48]	; (80022ec <HAL_ADC_ConfigChannel+0xf8>)
 80022ba:	681b      	ldr	r3, [r3, #0]
 80022bc:	fbb3 f2f2 	udiv	r2, r3, r2
 80022c0:	230a      	movs	r3, #10
 80022c2:	4353      	muls	r3, r2
 80022c4:	9301      	str	r3, [sp, #4]
 80022c6:	9b01      	ldr	r3, [sp, #4]
 80022c8:	2b00      	cmp	r3, #0
 80022ca:	d0c2      	beq.n	8002252 <HAL_ADC_ConfigChannel+0x5e>
 80022cc:	9b01      	ldr	r3, [sp, #4]
 80022ce:	3b01      	subs	r3, #1
 80022d0:	e7f8      	b.n	80022c4 <HAL_ADC_ConfigChannel+0xd0>
 80022d2:	6aa3      	ldr	r3, [r4, #40]	; 0x28
 80022d4:	2001      	movs	r0, #1
 80022d6:	f043 0320 	orr.w	r3, r3, #32
 80022da:	62a3      	str	r3, [r4, #40]	; 0x28
 80022dc:	e7ba      	b.n	8002254 <HAL_ADC_ConfigChannel+0x60>
 80022de:	2002      	movs	r0, #2
 80022e0:	e7bb      	b.n	800225a <HAL_ADC_ConfigChannel+0x66>
 80022e2:	bf00      	nop
 80022e4:	40012400 	.word	0x40012400
 80022e8:	20000034 	.word	0x20000034
 80022ec:	000f4240 	.word	0x000f4240

080022f0 <ADC_Enable>:
 80022f0:	2300      	movs	r3, #0
 80022f2:	b573      	push	{r0, r1, r4, r5, r6, lr}
 80022f4:	9301      	str	r3, [sp, #4]
 80022f6:	6803      	ldr	r3, [r0, #0]
 80022f8:	4604      	mov	r4, r0
 80022fa:	689a      	ldr	r2, [r3, #8]
 80022fc:	07d2      	lsls	r2, r2, #31
 80022fe:	d502      	bpl.n	8002306 <ADC_Enable+0x16>
 8002300:	2000      	movs	r0, #0
 8002302:	b002      	add	sp, #8
 8002304:	bd70      	pop	{r4, r5, r6, pc}
 8002306:	689a      	ldr	r2, [r3, #8]
 8002308:	f042 0201 	orr.w	r2, r2, #1
 800230c:	609a      	str	r2, [r3, #8]
 800230e:	4b12      	ldr	r3, [pc, #72]	; (8002358 <ADC_Enable+0x68>)
 8002310:	4a12      	ldr	r2, [pc, #72]	; (800235c <ADC_Enable+0x6c>)
 8002312:	681b      	ldr	r3, [r3, #0]
 8002314:	fbb3 f3f2 	udiv	r3, r3, r2
 8002318:	9301      	str	r3, [sp, #4]
 800231a:	9b01      	ldr	r3, [sp, #4]
 800231c:	b9c3      	cbnz	r3, 8002350 <ADC_Enable+0x60>
 800231e:	f7ff feb1 	bl	8002084 <HAL_GetTick>
 8002322:	4606      	mov	r6, r0
 8002324:	6823      	ldr	r3, [r4, #0]
 8002326:	689d      	ldr	r5, [r3, #8]
 8002328:	f015 0501 	ands.w	r5, r5, #1
 800232c:	d1e8      	bne.n	8002300 <ADC_Enable+0x10>
 800232e:	f7ff fea9 	bl	8002084 <HAL_GetTick>
 8002332:	1b80      	subs	r0, r0, r6
 8002334:	2802      	cmp	r0, #2
 8002336:	d9f5      	bls.n	8002324 <ADC_Enable+0x34>
 8002338:	6aa3      	ldr	r3, [r4, #40]	; 0x28
 800233a:	2001      	movs	r0, #1
 800233c:	f043 0310 	orr.w	r3, r3, #16
 8002340:	62a3      	str	r3, [r4, #40]	; 0x28
 8002342:	6ae3      	ldr	r3, [r4, #44]	; 0x2c
 8002344:	f884 5024 	strb.w	r5, [r4, #36]	; 0x24
 8002348:	f043 0301 	orr.w	r3, r3, #1
 800234c:	62e3      	str	r3, [r4, #44]	; 0x2c
 800234e:	e7d8      	b.n	8002302 <ADC_Enable+0x12>
 8002350:	9b01      	ldr	r3, [sp, #4]
 8002352:	3b01      	subs	r3, #1
 8002354:	e7e0      	b.n	8002318 <ADC_Enable+0x28>
 8002356:	bf00      	nop
 8002358:	20000034 	.word	0x20000034
 800235c:	000f4240 	.word	0x000f4240

08002360 <HAL_ADC_Start>:
 8002360:	b510      	push	{r4, lr}
 8002362:	f890 3024 	ldrb.w	r3, [r0, #36]	; 0x24
 8002366:	4604      	mov	r4, r0
 8002368:	2b01      	cmp	r3, #1
 800236a:	d054      	beq.n	8002416 <HAL_ADC_Start+0xb6>
 800236c:	2301      	movs	r3, #1
 800236e:	f880 3024 	strb.w	r3, [r0, #36]	; 0x24
 8002372:	f7ff ffbd 	bl	80022f0 <ADC_Enable>
 8002376:	2800      	cmp	r0, #0
 8002378:	d149      	bne.n	800240e <HAL_ADC_Start+0xae>
 800237a:	6aa3      	ldr	r3, [r4, #40]	; 0x28
 800237c:	4a27      	ldr	r2, [pc, #156]	; (800241c <HAL_ADC_Start+0xbc>)
 800237e:	f423 7340 	bic.w	r3, r3, #768	; 0x300
 8002382:	f023 0301 	bic.w	r3, r3, #1
 8002386:	f443 7380 	orr.w	r3, r3, #256	; 0x100
 800238a:	62a3      	str	r3, [r4, #40]	; 0x28
 800238c:	6823      	ldr	r3, [r4, #0]
 800238e:	4293      	cmp	r3, r2
 8002390:	d104      	bne.n	800239c <HAL_ADC_Start+0x3c>
 8002392:	4923      	ldr	r1, [pc, #140]	; (8002420 <HAL_ADC_Start+0xc0>)
 8002394:	684a      	ldr	r2, [r1, #4]
 8002396:	f412 2f70 	tst.w	r2, #983040	; 0xf0000
 800239a:	d12e      	bne.n	80023fa <HAL_ADC_Start+0x9a>
 800239c:	6aa2      	ldr	r2, [r4, #40]	; 0x28
 800239e:	f422 1280 	bic.w	r2, r2, #1048576	; 0x100000
 80023a2:	62a2      	str	r2, [r4, #40]	; 0x28
 80023a4:	685a      	ldr	r2, [r3, #4]
 80023a6:	0552      	lsls	r2, r2, #21
 80023a8:	bf41      	itttt	mi
 80023aa:	6aa2      	ldrmi	r2, [r4, #40]	; 0x28
 80023ac:	f422 5240 	bicmi.w	r2, r2, #12288	; 0x3000
 80023b0:	f442 5280 	orrmi.w	r2, r2, #4096	; 0x1000
 80023b4:	62a2      	strmi	r2, [r4, #40]	; 0x28
 80023b6:	6aa2      	ldr	r2, [r4, #40]	; 0x28
 80023b8:	f412 5280 	ands.w	r2, r2, #4096	; 0x1000
 80023bc:	bf1c      	itt	ne
 80023be:	6ae2      	ldrne	r2, [r4, #44]	; 0x2c
 80023c0:	f022 0206 	bicne.w	r2, r2, #6
 80023c4:	62e2      	str	r2, [r4, #44]	; 0x2c
 80023c6:	2200      	movs	r2, #0
 80023c8:	f884 2024 	strb.w	r2, [r4, #36]	; 0x24
 80023cc:	f06f 0202 	mvn.w	r2, #2
 80023d0:	601a      	str	r2, [r3, #0]
 80023d2:	689a      	ldr	r2, [r3, #8]
 80023d4:	f402 2260 	and.w	r2, r2, #917504	; 0xe0000
 80023d8:	f5b2 2f60 	cmp.w	r2, #917504	; 0xe0000
 80023dc:	d113      	bne.n	8002406 <HAL_ADC_Start+0xa6>
 80023de:	4a0f      	ldr	r2, [pc, #60]	; (800241c <HAL_ADC_Start+0xbc>)
 80023e0:	4293      	cmp	r3, r2
 80023e2:	d105      	bne.n	80023f0 <HAL_ADC_Start+0x90>
 80023e4:	f5a2 6280 	sub.w	r2, r2, #1024	; 0x400
 80023e8:	6852      	ldr	r2, [r2, #4]
 80023ea:	f412 2f70 	tst.w	r2, #983040	; 0xf0000
 80023ee:	d10a      	bne.n	8002406 <HAL_ADC_Start+0xa6>
 80023f0:	689a      	ldr	r2, [r3, #8]
 80023f2:	f442 02a0 	orr.w	r2, r2, #5242880	; 0x500000
 80023f6:	609a      	str	r2, [r3, #8]
 80023f8:	bd10      	pop	{r4, pc}
 80023fa:	6aa2      	ldr	r2, [r4, #40]	; 0x28
 80023fc:	f442 1280 	orr.w	r2, r2, #1048576	; 0x100000
 8002400:	62a2      	str	r2, [r4, #40]	; 0x28
 8002402:	684a      	ldr	r2, [r1, #4]
 8002404:	e7cf      	b.n	80023a6 <HAL_ADC_Start+0x46>
 8002406:	689a      	ldr	r2, [r3, #8]
 8002408:	f442 1280 	orr.w	r2, r2, #1048576	; 0x100000
 800240c:	e7f3      	b.n	80023f6 <HAL_ADC_Start+0x96>
 800240e:	2300      	movs	r3, #0
 8002410:	f884 3024 	strb.w	r3, [r4, #36]	; 0x24
 8002414:	e7f0      	b.n	80023f8 <HAL_ADC_Start+0x98>
 8002416:	2002      	movs	r0, #2
 8002418:	e7ee      	b.n	80023f8 <HAL_ADC_Start+0x98>
 800241a:	bf00      	nop
 800241c:	40012800 	.word	0x40012800
 8002420:	40012400 	.word	0x40012400

08002424 <ADC_ConversionStop_Disable>:
 8002424:	b538      	push	{r3, r4, r5, lr}
 8002426:	6803      	ldr	r3, [r0, #0]
 8002428:	4604      	mov	r4, r0
 800242a:	689a      	ldr	r2, [r3, #8]
 800242c:	07d2      	lsls	r2, r2, #31
 800242e:	d401      	bmi.n	8002434 <ADC_ConversionStop_Disable+0x10>
 8002430:	2000      	movs	r0, #0
 8002432:	bd38      	pop	{r3, r4, r5, pc}
 8002434:	689a      	ldr	r2, [r3, #8]
 8002436:	f022 0201 	bic.w	r2, r2, #1
 800243a:	609a      	str	r2, [r3, #8]
 800243c:	f7ff fe22 	bl	8002084 <HAL_GetTick>
 8002440:	4605      	mov	r5, r0
 8002442:	6823      	ldr	r3, [r4, #0]
 8002444:	689b      	ldr	r3, [r3, #8]
 8002446:	07db      	lsls	r3, r3, #31
 8002448:	d5f2      	bpl.n	8002430 <ADC_ConversionStop_Disable+0xc>
 800244a:	f7ff fe1b 	bl	8002084 <HAL_GetTick>
 800244e:	1b40      	subs	r0, r0, r5
 8002450:	2802      	cmp	r0, #2
 8002452:	d9f6      	bls.n	8002442 <ADC_ConversionStop_Disable+0x1e>
 8002454:	6aa3      	ldr	r3, [r4, #40]	; 0x28
 8002456:	2001      	movs	r0, #1
 8002458:	f043 0310 	orr.w	r3, r3, #16
 800245c:	62a3      	str	r3, [r4, #40]	; 0x28
 800245e:	6ae3      	ldr	r3, [r4, #44]	; 0x2c
 8002460:	f043 0301 	orr.w	r3, r3, #1
 8002464:	62e3      	str	r3, [r4, #44]	; 0x2c
 8002466:	e7e4      	b.n	8002432 <ADC_ConversionStop_Disable+0xe>

08002468 <HAL_ADC_Init>:
 8002468:	b5f8      	push	{r3, r4, r5, r6, r7, lr}
 800246a:	4604      	mov	r4, r0
 800246c:	2800      	cmp	r0, #0
 800246e:	d06e      	beq.n	800254e <HAL_ADC_Init+0xe6>
 8002470:	6a83      	ldr	r3, [r0, #40]	; 0x28
 8002472:	b923      	cbnz	r3, 800247e <HAL_ADC_Init+0x16>
 8002474:	62c3      	str	r3, [r0, #44]	; 0x2c
 8002476:	f880 3024 	strb.w	r3, [r0, #36]	; 0x24
 800247a:	f7ff fc6b 	bl	8001d54 <HAL_ADC_MspInit>
 800247e:	4620      	mov	r0, r4
 8002480:	f7ff ffd0 	bl	8002424 <ADC_ConversionStop_Disable>
 8002484:	6aa3      	ldr	r3, [r4, #40]	; 0x28
 8002486:	f013 0310 	ands.w	r3, r3, #16
 800248a:	d162      	bne.n	8002552 <HAL_ADC_Init+0xea>
 800248c:	2800      	cmp	r0, #0
 800248e:	d160      	bne.n	8002552 <HAL_ADC_Init+0xea>
 8002490:	6aa2      	ldr	r2, [r4, #40]	; 0x28
 8002492:	69e5      	ldr	r5, [r4, #28]
 8002494:	6861      	ldr	r1, [r4, #4]
 8002496:	f422 5288 	bic.w	r2, r2, #4352	; 0x1100
 800249a:	f022 0202 	bic.w	r2, r2, #2
 800249e:	f042 0202 	orr.w	r2, r2, #2
 80024a2:	4329      	orrs	r1, r5
 80024a4:	68a5      	ldr	r5, [r4, #8]
 80024a6:	62a2      	str	r2, [r4, #40]	; 0x28
 80024a8:	7b22      	ldrb	r2, [r4, #12]
 80024aa:	f5b5 7f80 	cmp.w	r5, #256	; 0x100
 80024ae:	ea41 0142 	orr.w	r1, r1, r2, lsl #1
 80024b2:	d037      	beq.n	8002524 <HAL_ADC_Init+0xbc>
 80024b4:	2d01      	cmp	r5, #1
 80024b6:	bf14      	ite	ne
 80024b8:	2700      	movne	r7, #0
 80024ba:	f44f 7780 	moveq.w	r7, #256	; 0x100
 80024be:	7d26      	ldrb	r6, [r4, #20]
 80024c0:	2e01      	cmp	r6, #1
 80024c2:	d106      	bne.n	80024d2 <HAL_ADC_Init+0x6a>
 80024c4:	bb82      	cbnz	r2, 8002528 <HAL_ADC_Init+0xc0>
 80024c6:	69a2      	ldr	r2, [r4, #24]
 80024c8:	3a01      	subs	r2, #1
 80024ca:	ea47 3642 	orr.w	r6, r7, r2, lsl #13
 80024ce:	f446 6700 	orr.w	r7, r6, #2048	; 0x800
 80024d2:	6822      	ldr	r2, [r4, #0]
 80024d4:	f5b5 7f80 	cmp.w	r5, #256	; 0x100
 80024d8:	6856      	ldr	r6, [r2, #4]
 80024da:	f426 4669 	bic.w	r6, r6, #59648	; 0xe900
 80024de:	ea46 0607 	orr.w	r6, r6, r7
 80024e2:	6056      	str	r6, [r2, #4]
 80024e4:	6897      	ldr	r7, [r2, #8]
 80024e6:	4e1d      	ldr	r6, [pc, #116]	; (800255c <HAL_ADC_Init+0xf4>)
 80024e8:	ea06 0607 	and.w	r6, r6, r7
 80024ec:	ea46 0601 	orr.w	r6, r6, r1
 80024f0:	6096      	str	r6, [r2, #8]
 80024f2:	d001      	beq.n	80024f8 <HAL_ADC_Init+0x90>
 80024f4:	2d01      	cmp	r5, #1
 80024f6:	d102      	bne.n	80024fe <HAL_ADC_Init+0x96>
 80024f8:	6923      	ldr	r3, [r4, #16]
 80024fa:	3b01      	subs	r3, #1
 80024fc:	051b      	lsls	r3, r3, #20
 80024fe:	6ad5      	ldr	r5, [r2, #44]	; 0x2c
 8002500:	f425 0570 	bic.w	r5, r5, #15728640	; 0xf00000
 8002504:	432b      	orrs	r3, r5
 8002506:	62d3      	str	r3, [r2, #44]	; 0x2c
 8002508:	6892      	ldr	r2, [r2, #8]
 800250a:	4b15      	ldr	r3, [pc, #84]	; (8002560 <HAL_ADC_Init+0xf8>)
 800250c:	4013      	ands	r3, r2
 800250e:	4299      	cmp	r1, r3
 8002510:	d113      	bne.n	800253a <HAL_ADC_Init+0xd2>
 8002512:	2300      	movs	r3, #0
 8002514:	62e3      	str	r3, [r4, #44]	; 0x2c
 8002516:	6aa3      	ldr	r3, [r4, #40]	; 0x28
 8002518:	f023 0303 	bic.w	r3, r3, #3
 800251c:	f043 0301 	orr.w	r3, r3, #1
 8002520:	62a3      	str	r3, [r4, #40]	; 0x28
 8002522:	bdf8      	pop	{r3, r4, r5, r6, r7, pc}
 8002524:	462f      	mov	r7, r5
 8002526:	e7ca      	b.n	80024be <HAL_ADC_Init+0x56>
 8002528:	6aa2      	ldr	r2, [r4, #40]	; 0x28
 800252a:	f042 0220 	orr.w	r2, r2, #32
 800252e:	62a2      	str	r2, [r4, #40]	; 0x28
 8002530:	6ae2      	ldr	r2, [r4, #44]	; 0x2c
 8002532:	f042 0201 	orr.w	r2, r2, #1
 8002536:	62e2      	str	r2, [r4, #44]	; 0x2c
 8002538:	e7cb      	b.n	80024d2 <HAL_ADC_Init+0x6a>
 800253a:	6aa3      	ldr	r3, [r4, #40]	; 0x28
 800253c:	f023 0312 	bic.w	r3, r3, #18
 8002540:	f043 0310 	orr.w	r3, r3, #16
 8002544:	62a3      	str	r3, [r4, #40]	; 0x28
 8002546:	6ae3      	ldr	r3, [r4, #44]	; 0x2c
 8002548:	f043 0301 	orr.w	r3, r3, #1
 800254c:	62e3      	str	r3, [r4, #44]	; 0x2c
 800254e:	2001      	movs	r0, #1
 8002550:	e7e7      	b.n	8002522 <HAL_ADC_Init+0xba>
 8002552:	6aa3      	ldr	r3, [r4, #40]	; 0x28
 8002554:	f043 0310 	orr.w	r3, r3, #16
 8002558:	62a3      	str	r3, [r4, #40]	; 0x28
 800255a:	e7f8      	b.n	800254e <HAL_ADC_Init+0xe6>
 800255c:	ffe1f7fd 	.word	0xffe1f7fd
 8002560:	ff1f0efe 	.word	0xff1f0efe

08002564 <HAL_ADC_Stop>:
 8002564:	b510      	push	{r4, lr}
 8002566:	f890 3024 	ldrb.w	r3, [r0, #36]	; 0x24
 800256a:	4604      	mov	r4, r0
 800256c:	2b01      	cmp	r3, #1
 800256e:	d011      	beq.n	8002594 <HAL_ADC_Stop+0x30>
 8002570:	2301      	movs	r3, #1
 8002572:	f880 3024 	strb.w	r3, [r0, #36]	; 0x24
 8002576:	f7ff ff55 	bl	8002424 <ADC_ConversionStop_Disable>
 800257a:	b938      	cbnz	r0, 800258c <HAL_ADC_Stop+0x28>
 800257c:	6aa3      	ldr	r3, [r4, #40]	; 0x28
 800257e:	f423 5388 	bic.w	r3, r3, #4352	; 0x1100
 8002582:	f023 0301 	bic.w	r3, r3, #1
 8002586:	f043 0301 	orr.w	r3, r3, #1
 800258a:	62a3      	str	r3, [r4, #40]	; 0x28
 800258c:	2300      	movs	r3, #0
 800258e:	f884 3024 	strb.w	r3, [r4, #36]	; 0x24
 8002592:	bd10      	pop	{r4, pc}
 8002594:	2002      	movs	r0, #2
 8002596:	e7fc      	b.n	8002592 <HAL_ADC_Stop+0x2e>

08002598 <HAL_NVIC_SetPriorityGrouping>:
 8002598:	4907      	ldr	r1, [pc, #28]	; (80025b8 <HAL_NVIC_SetPriorityGrouping+0x20>)
 800259a:	0203      	lsls	r3, r0, #8
 800259c:	68ca      	ldr	r2, [r1, #12]
 800259e:	f403 63e0 	and.w	r3, r3, #1792	; 0x700
 80025a2:	f422 62e0 	bic.w	r2, r2, #1792	; 0x700
 80025a6:	0412      	lsls	r2, r2, #16
 80025a8:	0c12      	lsrs	r2, r2, #16
 80025aa:	4313      	orrs	r3, r2
 80025ac:	f043 63bf 	orr.w	r3, r3, #100139008	; 0x5f80000
 80025b0:	f443 3300 	orr.w	r3, r3, #131072	; 0x20000
 80025b4:	60cb      	str	r3, [r1, #12]
 80025b6:	4770      	bx	lr
 80025b8:	e000ed00 	.word	0xe000ed00

080025bc <HAL_NVIC_SetPriority>:
 80025bc:	4b16      	ldr	r3, [pc, #88]	; (8002618 <HAL_NVIC_SetPriority+0x5c>)
 80025be:	b530      	push	{r4, r5, lr}
 80025c0:	68dc      	ldr	r4, [r3, #12]
 80025c2:	f3c4 2402 	ubfx	r4, r4, #8, #3
 80025c6:	f1c4 0307 	rsb	r3, r4, #7
 80025ca:	1d25      	adds	r5, r4, #4
 80025cc:	2b04      	cmp	r3, #4
 80025ce:	bf28      	it	cs
 80025d0:	2304      	movcs	r3, #4
 80025d2:	2d06      	cmp	r5, #6
 80025d4:	f04f 35ff 	mov.w	r5, #4294967295
 80025d8:	bf98      	it	ls
 80025da:	2400      	movls	r4, #0
 80025dc:	fa05 f303 	lsl.w	r3, r5, r3
 80025e0:	bf88      	it	hi
 80025e2:	3c03      	subhi	r4, #3
 80025e4:	ea21 0303 	bic.w	r3, r1, r3
 80025e8:	40a3      	lsls	r3, r4
 80025ea:	fa05 f404 	lsl.w	r4, r5, r4
 80025ee:	ea22 0204 	bic.w	r2, r2, r4
 80025f2:	2800      	cmp	r0, #0
 80025f4:	ea43 0302 	orr.w	r3, r3, r2
 80025f8:	bfac      	ite	ge
 80025fa:	f100 4060 	addge.w	r0, r0, #3758096384	; 0xe0000000
 80025fe:	4a07      	ldrlt	r2, [pc, #28]	; (800261c <HAL_NVIC_SetPriority+0x60>)
 8002600:	ea4f 1303 	mov.w	r3, r3, lsl #4
 8002604:	b2db      	uxtb	r3, r3
 8002606:	bfab      	itete	ge
 8002608:	f500 4061 	addge.w	r0, r0, #57600	; 0xe100
 800260c:	f000 000f 	andlt.w	r0, r0, #15
 8002610:	f880 3300 	strbge.w	r3, [r0, #768]	; 0x300
 8002614:	5413      	strblt	r3, [r2, r0]
 8002616:	bd30      	pop	{r4, r5, pc}
 8002618:	e000ed00 	.word	0xe000ed00
 800261c:	e000ed14 	.word	0xe000ed14

08002620 <HAL_SYSTICK_Config>:
 8002620:	3801      	subs	r0, #1
 8002622:	f1b0 7f80 	cmp.w	r0, #16777216	; 0x1000000
 8002626:	d20a      	bcs.n	800263e <HAL_SYSTICK_Config+0x1e>
 8002628:	21f0      	movs	r1, #240	; 0xf0
 800262a:	4b06      	ldr	r3, [pc, #24]	; (8002644 <HAL_SYSTICK_Config+0x24>)
 800262c:	4a06      	ldr	r2, [pc, #24]	; (8002648 <HAL_SYSTICK_Config+0x28>)
 800262e:	6058      	str	r0, [r3, #4]
 8002630:	f882 1023 	strb.w	r1, [r2, #35]	; 0x23
 8002634:	2000      	movs	r0, #0
 8002636:	2207      	movs	r2, #7
 8002638:	6098      	str	r0, [r3, #8]
 800263a:	601a      	str	r2, [r3, #0]
 800263c:	4770      	bx	lr
 800263e:	2001      	movs	r0, #1
 8002640:	4770      	bx	lr
 8002642:	bf00      	nop
 8002644:	e000e010 	.word	0xe000e010
 8002648:	e000ed00 	.word	0xe000ed00

0800264c <HAL_GPIO_Init>:
 800264c:	e92d 4ff7 	stmdb	sp!, {r0, r1, r2, r4, r5, r6, r7, r8, r9, sl, fp, lr}
 8002650:	2200      	movs	r2, #0
 8002652:	4616      	mov	r6, r2
 8002654:	4b64      	ldr	r3, [pc, #400]	; (80027e8 <HAL_GPIO_Init+0x19c>)
 8002656:	f8df c1a0 	ldr.w	ip, [pc, #416]	; 80027f8 <HAL_GPIO_Init+0x1ac>
 800265a:	f8df e1a0 	ldr.w	lr, [pc, #416]	; 80027fc <HAL_GPIO_Init+0x1b0>
 800265e:	680d      	ldr	r5, [r1, #0]
 8002660:	fa35 f406 	lsrs.w	r4, r5, r6
 8002664:	d102      	bne.n	800266c <HAL_GPIO_Init+0x20>
 8002666:	b003      	add	sp, #12
 8002668:	e8bd 8ff0 	ldmia.w	sp!, {r4, r5, r6, r7, r8, r9, sl, fp, pc}
 800266c:	f04f 0801 	mov.w	r8, #1
 8002670:	fa08 f806 	lsl.w	r8, r8, r6
 8002674:	ea05 0408 	and.w	r4, r5, r8
 8002678:	ea38 0505 	bics.w	r5, r8, r5
 800267c:	d17c      	bne.n	8002778 <HAL_GPIO_Init+0x12c>
 800267e:	684d      	ldr	r5, [r1, #4]
 8002680:	2d03      	cmp	r5, #3
 8002682:	d807      	bhi.n	8002694 <HAL_GPIO_Init+0x48>
 8002684:	3d01      	subs	r5, #1
 8002686:	2d02      	cmp	r5, #2
 8002688:	f200 8088 	bhi.w	800279c <HAL_GPIO_Init+0x150>
 800268c:	e8df f005 	tbb	[pc, r5]
 8002690:	9b96      	.short	0x9b96
 8002692:	a1          	.byte	0xa1
 8002693:	00          	.byte	0x00
 8002694:	2d12      	cmp	r5, #18
 8002696:	f000 8099 	beq.w	80027cc <HAL_GPIO_Init+0x180>
 800269a:	d86f      	bhi.n	800277c <HAL_GPIO_Init+0x130>
 800269c:	2d11      	cmp	r5, #17
 800269e:	f000 808f 	beq.w	80027c0 <HAL_GPIO_Init+0x174>
 80026a2:	2cff      	cmp	r4, #255	; 0xff
 80026a4:	bf98      	it	ls
 80026a6:	4682      	movls	sl, r0
 80026a8:	f04f 090f 	mov.w	r9, #15
 80026ac:	bf88      	it	hi
 80026ae:	f100 0a04 	addhi.w	sl, r0, #4
 80026b2:	ea4f 0586 	mov.w	r5, r6, lsl #2
 80026b6:	f8da 8000 	ldr.w	r8, [sl]
 80026ba:	bf88      	it	hi
 80026bc:	3d20      	subhi	r5, #32
 80026be:	fa09 fb05 	lsl.w	fp, r9, r5
 80026c2:	ea28 080b 	bic.w	r8, r8, fp
 80026c6:	fa02 f505 	lsl.w	r5, r2, r5
 80026ca:	ea48 0505 	orr.w	r5, r8, r5
 80026ce:	f8ca 5000 	str.w	r5, [sl]
 80026d2:	f8d1 a004 	ldr.w	sl, [r1, #4]
 80026d6:	f01a 5f80 	tst.w	sl, #268435456	; 0x10000000
 80026da:	d04d      	beq.n	8002778 <HAL_GPIO_Init+0x12c>
 80026dc:	4f43      	ldr	r7, [pc, #268]	; (80027ec <HAL_GPIO_Init+0x1a0>)
 80026de:	f026 0803 	bic.w	r8, r6, #3
 80026e2:	69bd      	ldr	r5, [r7, #24]
 80026e4:	f108 4880 	add.w	r8, r8, #1073741824	; 0x40000000
 80026e8:	f045 0501 	orr.w	r5, r5, #1
 80026ec:	61bd      	str	r5, [r7, #24]
 80026ee:	69bd      	ldr	r5, [r7, #24]
 80026f0:	f508 3880 	add.w	r8, r8, #65536	; 0x10000
 80026f4:	f005 0501 	and.w	r5, r5, #1
 80026f8:	9501      	str	r5, [sp, #4]
 80026fa:	f006 0b03 	and.w	fp, r6, #3
 80026fe:	9d01      	ldr	r5, [sp, #4]
 8002700:	ea4f 0b8b 	mov.w	fp, fp, lsl #2
 8002704:	f8d8 5008 	ldr.w	r5, [r8, #8]
 8002708:	fa09 f90b 	lsl.w	r9, r9, fp
 800270c:	ea25 0909 	bic.w	r9, r5, r9
 8002710:	4d37      	ldr	r5, [pc, #220]	; (80027f0 <HAL_GPIO_Init+0x1a4>)
 8002712:	42a8      	cmp	r0, r5
 8002714:	d061      	beq.n	80027da <HAL_GPIO_Init+0x18e>
 8002716:	f505 6580 	add.w	r5, r5, #1024	; 0x400
 800271a:	42a8      	cmp	r0, r5
 800271c:	d05f      	beq.n	80027de <HAL_GPIO_Init+0x192>
 800271e:	f505 6580 	add.w	r5, r5, #1024	; 0x400
 8002722:	42a8      	cmp	r0, r5
 8002724:	d05d      	beq.n	80027e2 <HAL_GPIO_Init+0x196>
 8002726:	f505 6580 	add.w	r5, r5, #1024	; 0x400
 800272a:	42a8      	cmp	r0, r5
 800272c:	bf0c      	ite	eq
 800272e:	2503      	moveq	r5, #3
 8002730:	2504      	movne	r5, #4
 8002732:	fa05 f50b 	lsl.w	r5, r5, fp
 8002736:	ea45 0509 	orr.w	r5, r5, r9
 800273a:	f8c8 5008 	str.w	r5, [r8, #8]
 800273e:	681d      	ldr	r5, [r3, #0]
 8002740:	f41a 3f80 	tst.w	sl, #65536	; 0x10000
 8002744:	bf14      	ite	ne
 8002746:	4325      	orrne	r5, r4
 8002748:	43a5      	biceq	r5, r4
 800274a:	601d      	str	r5, [r3, #0]
 800274c:	685d      	ldr	r5, [r3, #4]
 800274e:	f41a 3f00 	tst.w	sl, #131072	; 0x20000
 8002752:	bf14      	ite	ne
 8002754:	4325      	orrne	r5, r4
 8002756:	43a5      	biceq	r5, r4
 8002758:	605d      	str	r5, [r3, #4]
 800275a:	689d      	ldr	r5, [r3, #8]
 800275c:	f41a 1f80 	tst.w	sl, #1048576	; 0x100000
 8002760:	bf14      	ite	ne
 8002762:	4325      	orrne	r5, r4
 8002764:	43a5      	biceq	r5, r4
 8002766:	609d      	str	r5, [r3, #8]
 8002768:	68dd      	ldr	r5, [r3, #12]
 800276a:	f41a 1f00 	tst.w	sl, #2097152	; 0x200000
 800276e:	bf14      	ite	ne
 8002770:	432c      	orrne	r4, r5
 8002772:	ea25 0404 	biceq.w	r4, r5, r4
 8002776:	60dc      	str	r4, [r3, #12]
 8002778:	3601      	adds	r6, #1
 800277a:	e770      	b.n	800265e <HAL_GPIO_Init+0x12>
 800277c:	4f1d      	ldr	r7, [pc, #116]	; (80027f4 <HAL_GPIO_Init+0x1a8>)
 800277e:	42bd      	cmp	r5, r7
 8002780:	d00c      	beq.n	800279c <HAL_GPIO_Init+0x150>
 8002782:	d817      	bhi.n	80027b4 <HAL_GPIO_Init+0x168>
 8002784:	f8df 9078 	ldr.w	r9, [pc, #120]	; 8002800 <HAL_GPIO_Init+0x1b4>
 8002788:	454d      	cmp	r5, r9
 800278a:	d007      	beq.n	800279c <HAL_GPIO_Init+0x150>
 800278c:	f509 2970 	add.w	r9, r9, #983040	; 0xf0000
 8002790:	454d      	cmp	r5, r9
 8002792:	d003      	beq.n	800279c <HAL_GPIO_Init+0x150>
 8002794:	f5a9 1980 	sub.w	r9, r9, #1048576	; 0x100000
 8002798:	454d      	cmp	r5, r9
 800279a:	d182      	bne.n	80026a2 <HAL_GPIO_Init+0x56>
 800279c:	688a      	ldr	r2, [r1, #8]
 800279e:	b1d2      	cbz	r2, 80027d6 <HAL_GPIO_Init+0x18a>
 80027a0:	2a01      	cmp	r2, #1
 80027a2:	bf08      	it	eq
 80027a4:	f8c0 8010 	streq.w	r8, [r0, #16]
 80027a8:	f04f 0208 	mov.w	r2, #8
 80027ac:	bf18      	it	ne
 80027ae:	f8c0 8014 	strne.w	r8, [r0, #20]
 80027b2:	e776      	b.n	80026a2 <HAL_GPIO_Init+0x56>
 80027b4:	4565      	cmp	r5, ip
 80027b6:	d0f1      	beq.n	800279c <HAL_GPIO_Init+0x150>
 80027b8:	4575      	cmp	r5, lr
 80027ba:	e7ee      	b.n	800279a <HAL_GPIO_Init+0x14e>
 80027bc:	68ca      	ldr	r2, [r1, #12]
 80027be:	e770      	b.n	80026a2 <HAL_GPIO_Init+0x56>
 80027c0:	68ca      	ldr	r2, [r1, #12]
 80027c2:	3204      	adds	r2, #4
 80027c4:	e76d      	b.n	80026a2 <HAL_GPIO_Init+0x56>
 80027c6:	68ca      	ldr	r2, [r1, #12]
 80027c8:	3208      	adds	r2, #8
 80027ca:	e76a      	b.n	80026a2 <HAL_GPIO_Init+0x56>
 80027cc:	68ca      	ldr	r2, [r1, #12]
 80027ce:	320c      	adds	r2, #12
 80027d0:	e767      	b.n	80026a2 <HAL_GPIO_Init+0x56>
 80027d2:	2200      	movs	r2, #0
 80027d4:	e765      	b.n	80026a2 <HAL_GPIO_Init+0x56>
 80027d6:	2204      	movs	r2, #4
 80027d8:	e763      	b.n	80026a2 <HAL_GPIO_Init+0x56>
 80027da:	2500      	movs	r5, #0
 80027dc:	e7a9      	b.n	8002732 <HAL_GPIO_Init+0xe6>
 80027de:	2501      	movs	r5, #1
 80027e0:	e7a7      	b.n	8002732 <HAL_GPIO_Init+0xe6>
 80027e2:	2502      	movs	r5, #2
 80027e4:	e7a5      	b.n	8002732 <HAL_GPIO_Init+0xe6>
 80027e6:	bf00      	nop
 80027e8:	40010400 	.word	0x40010400
 80027ec:	40021000 	.word	0x40021000
 80027f0:	40010800 	.word	0x40010800
 80027f4:	10220000 	.word	0x10220000
 80027f8:	10310000 	.word	0x10310000
 80027fc:	10320000 	.word	0x10320000
 8002800:	10120000 	.word	0x10120000

08002804 <HAL_GPIO_ReadPin>:
 8002804:	6883      	ldr	r3, [r0, #8]
 8002806:	4219      	tst	r1, r3
 8002808:	bf14      	ite	ne
 800280a:	2001      	movne	r0, #1
 800280c:	2000      	moveq	r0, #0
 800280e:	4770      	bx	lr

08002810 <HAL_GPIO_WritePin>:
 8002810:	b10a      	cbz	r2, 8002816 <HAL_GPIO_WritePin+0x6>
 8002812:	6101      	str	r1, [r0, #16]
 8002814:	4770      	bx	lr
 8002816:	0409      	lsls	r1, r1, #16
 8002818:	e7fb      	b.n	8002812 <HAL_GPIO_WritePin+0x2>
	...

0800281c <HAL_RCC_OscConfig>:
 800281c:	e92d 41f3 	stmdb	sp!, {r0, r1, r4, r5, r6, r7, r8, lr}
 8002820:	4605      	mov	r5, r0
 8002822:	b338      	cbz	r0, 8002874 <HAL_RCC_OscConfig+0x58>
 8002824:	6803      	ldr	r3, [r0, #0]
 8002826:	07db      	lsls	r3, r3, #31
 8002828:	d410      	bmi.n	800284c <HAL_RCC_OscConfig+0x30>
 800282a:	682b      	ldr	r3, [r5, #0]
 800282c:	079f      	lsls	r7, r3, #30
 800282e:	d45e      	bmi.n	80028ee <HAL_RCC_OscConfig+0xd2>
 8002830:	682b      	ldr	r3, [r5, #0]
 8002832:	0719      	lsls	r1, r3, #28
 8002834:	f100 8095 	bmi.w	8002962 <HAL_RCC_OscConfig+0x146>
 8002838:	682b      	ldr	r3, [r5, #0]
 800283a:	075a      	lsls	r2, r3, #29
 800283c:	f100 80bf 	bmi.w	80029be <HAL_RCC_OscConfig+0x1a2>
 8002840:	69e8      	ldr	r0, [r5, #28]
 8002842:	2800      	cmp	r0, #0
 8002844:	f040 812c 	bne.w	8002aa0 <HAL_RCC_OscConfig+0x284>
 8002848:	2000      	movs	r0, #0
 800284a:	e029      	b.n	80028a0 <HAL_RCC_OscConfig+0x84>
 800284c:	4c8f      	ldr	r4, [pc, #572]	; (8002a8c <HAL_RCC_OscConfig+0x270>)
 800284e:	6863      	ldr	r3, [r4, #4]
 8002850:	f003 030c 	and.w	r3, r3, #12
 8002854:	2b04      	cmp	r3, #4
 8002856:	d007      	beq.n	8002868 <HAL_RCC_OscConfig+0x4c>
 8002858:	6863      	ldr	r3, [r4, #4]
 800285a:	f003 030c 	and.w	r3, r3, #12
 800285e:	2b08      	cmp	r3, #8
 8002860:	d10a      	bne.n	8002878 <HAL_RCC_OscConfig+0x5c>
 8002862:	6863      	ldr	r3, [r4, #4]
 8002864:	03de      	lsls	r6, r3, #15
 8002866:	d507      	bpl.n	8002878 <HAL_RCC_OscConfig+0x5c>
 8002868:	6823      	ldr	r3, [r4, #0]
 800286a:	039c      	lsls	r4, r3, #14
 800286c:	d5dd      	bpl.n	800282a <HAL_RCC_OscConfig+0xe>
 800286e:	686b      	ldr	r3, [r5, #4]
 8002870:	2b00      	cmp	r3, #0
 8002872:	d1da      	bne.n	800282a <HAL_RCC_OscConfig+0xe>
 8002874:	2001      	movs	r0, #1
 8002876:	e013      	b.n	80028a0 <HAL_RCC_OscConfig+0x84>
 8002878:	686b      	ldr	r3, [r5, #4]
 800287a:	f5b3 3f80 	cmp.w	r3, #65536	; 0x10000
 800287e:	d112      	bne.n	80028a6 <HAL_RCC_OscConfig+0x8a>
 8002880:	6823      	ldr	r3, [r4, #0]
 8002882:	f443 3380 	orr.w	r3, r3, #65536	; 0x10000
 8002886:	6023      	str	r3, [r4, #0]
 8002888:	f7ff fbfc 	bl	8002084 <HAL_GetTick>
 800288c:	4606      	mov	r6, r0
 800288e:	6823      	ldr	r3, [r4, #0]
 8002890:	0398      	lsls	r0, r3, #14
 8002892:	d4ca      	bmi.n	800282a <HAL_RCC_OscConfig+0xe>
 8002894:	f7ff fbf6 	bl	8002084 <HAL_GetTick>
 8002898:	1b80      	subs	r0, r0, r6
 800289a:	2864      	cmp	r0, #100	; 0x64
 800289c:	d9f7      	bls.n	800288e <HAL_RCC_OscConfig+0x72>
 800289e:	2003      	movs	r0, #3
 80028a0:	b002      	add	sp, #8
 80028a2:	e8bd 81f0 	ldmia.w	sp!, {r4, r5, r6, r7, r8, pc}
 80028a6:	b99b      	cbnz	r3, 80028d0 <HAL_RCC_OscConfig+0xb4>
 80028a8:	6823      	ldr	r3, [r4, #0]
 80028aa:	f423 3380 	bic.w	r3, r3, #65536	; 0x10000
 80028ae:	6023      	str	r3, [r4, #0]
 80028b0:	6823      	ldr	r3, [r4, #0]
 80028b2:	f423 2380 	bic.w	r3, r3, #262144	; 0x40000
 80028b6:	6023      	str	r3, [r4, #0]
 80028b8:	f7ff fbe4 	bl	8002084 <HAL_GetTick>
 80028bc:	4606      	mov	r6, r0
 80028be:	6823      	ldr	r3, [r4, #0]
 80028c0:	0399      	lsls	r1, r3, #14
 80028c2:	d5b2      	bpl.n	800282a <HAL_RCC_OscConfig+0xe>
 80028c4:	f7ff fbde 	bl	8002084 <HAL_GetTick>
 80028c8:	1b80      	subs	r0, r0, r6
 80028ca:	2864      	cmp	r0, #100	; 0x64
 80028cc:	d9f7      	bls.n	80028be <HAL_RCC_OscConfig+0xa2>
 80028ce:	e7e6      	b.n	800289e <HAL_RCC_OscConfig+0x82>
 80028d0:	f5b3 2fa0 	cmp.w	r3, #327680	; 0x50000
 80028d4:	6823      	ldr	r3, [r4, #0]
 80028d6:	d103      	bne.n	80028e0 <HAL_RCC_OscConfig+0xc4>
 80028d8:	f443 2380 	orr.w	r3, r3, #262144	; 0x40000
 80028dc:	6023      	str	r3, [r4, #0]
 80028de:	e7cf      	b.n	8002880 <HAL_RCC_OscConfig+0x64>
 80028e0:	f423 3380 	bic.w	r3, r3, #65536	; 0x10000
 80028e4:	6023      	str	r3, [r4, #0]
 80028e6:	6823      	ldr	r3, [r4, #0]
 80028e8:	f423 2380 	bic.w	r3, r3, #262144	; 0x40000
 80028ec:	e7cb      	b.n	8002886 <HAL_RCC_OscConfig+0x6a>
 80028ee:	4c67      	ldr	r4, [pc, #412]	; (8002a8c <HAL_RCC_OscConfig+0x270>)
 80028f0:	6863      	ldr	r3, [r4, #4]
 80028f2:	f013 0f0c 	tst.w	r3, #12
 80028f6:	d007      	beq.n	8002908 <HAL_RCC_OscConfig+0xec>
 80028f8:	6863      	ldr	r3, [r4, #4]
 80028fa:	f003 030c 	and.w	r3, r3, #12
 80028fe:	2b08      	cmp	r3, #8
 8002900:	d110      	bne.n	8002924 <HAL_RCC_OscConfig+0x108>
 8002902:	6863      	ldr	r3, [r4, #4]
 8002904:	03da      	lsls	r2, r3, #15
 8002906:	d40d      	bmi.n	8002924 <HAL_RCC_OscConfig+0x108>
 8002908:	6823      	ldr	r3, [r4, #0]
 800290a:	079b      	lsls	r3, r3, #30
 800290c:	d502      	bpl.n	8002914 <HAL_RCC_OscConfig+0xf8>
 800290e:	692b      	ldr	r3, [r5, #16]
 8002910:	2b01      	cmp	r3, #1
 8002912:	d1af      	bne.n	8002874 <HAL_RCC_OscConfig+0x58>
 8002914:	6823      	ldr	r3, [r4, #0]
 8002916:	696a      	ldr	r2, [r5, #20]
 8002918:	f023 03f8 	bic.w	r3, r3, #248	; 0xf8
 800291c:	ea43 03c2 	orr.w	r3, r3, r2, lsl #3
 8002920:	6023      	str	r3, [r4, #0]
 8002922:	e785      	b.n	8002830 <HAL_RCC_OscConfig+0x14>
 8002924:	692a      	ldr	r2, [r5, #16]
 8002926:	4b5a      	ldr	r3, [pc, #360]	; (8002a90 <HAL_RCC_OscConfig+0x274>)
 8002928:	b16a      	cbz	r2, 8002946 <HAL_RCC_OscConfig+0x12a>
 800292a:	2201      	movs	r2, #1
 800292c:	601a      	str	r2, [r3, #0]
 800292e:	f7ff fba9 	bl	8002084 <HAL_GetTick>
 8002932:	4606      	mov	r6, r0
 8002934:	6823      	ldr	r3, [r4, #0]
 8002936:	079f      	lsls	r7, r3, #30
 8002938:	d4ec      	bmi.n	8002914 <HAL_RCC_OscConfig+0xf8>
 800293a:	f7ff fba3 	bl	8002084 <HAL_GetTick>
 800293e:	1b80      	subs	r0, r0, r6
 8002940:	2802      	cmp	r0, #2
 8002942:	d9f7      	bls.n	8002934 <HAL_RCC_OscConfig+0x118>
 8002944:	e7ab      	b.n	800289e <HAL_RCC_OscConfig+0x82>
 8002946:	601a      	str	r2, [r3, #0]
 8002948:	f7ff fb9c 	bl	8002084 <HAL_GetTick>
 800294c:	4606      	mov	r6, r0
 800294e:	6823      	ldr	r3, [r4, #0]
 8002950:	0798      	lsls	r0, r3, #30
 8002952:	f57f af6d 	bpl.w	8002830 <HAL_RCC_OscConfig+0x14>
 8002956:	f7ff fb95 	bl	8002084 <HAL_GetTick>
 800295a:	1b80      	subs	r0, r0, r6
 800295c:	2802      	cmp	r0, #2
 800295e:	d9f6      	bls.n	800294e <HAL_RCC_OscConfig+0x132>
 8002960:	e79d      	b.n	800289e <HAL_RCC_OscConfig+0x82>
 8002962:	69aa      	ldr	r2, [r5, #24]
 8002964:	4e49      	ldr	r6, [pc, #292]	; (8002a8c <HAL_RCC_OscConfig+0x270>)
 8002966:	4b4b      	ldr	r3, [pc, #300]	; (8002a94 <HAL_RCC_OscConfig+0x278>)
 8002968:	b1da      	cbz	r2, 80029a2 <HAL_RCC_OscConfig+0x186>
 800296a:	2201      	movs	r2, #1
 800296c:	601a      	str	r2, [r3, #0]
 800296e:	f7ff fb89 	bl	8002084 <HAL_GetTick>
 8002972:	4604      	mov	r4, r0
 8002974:	6a73      	ldr	r3, [r6, #36]	; 0x24
 8002976:	079b      	lsls	r3, r3, #30
 8002978:	d50d      	bpl.n	8002996 <HAL_RCC_OscConfig+0x17a>
 800297a:	f44f 52fa 	mov.w	r2, #8000	; 0x1f40
 800297e:	4b46      	ldr	r3, [pc, #280]	; (8002a98 <HAL_RCC_OscConfig+0x27c>)
 8002980:	681b      	ldr	r3, [r3, #0]
 8002982:	fbb3 f3f2 	udiv	r3, r3, r2
 8002986:	9301      	str	r3, [sp, #4]
 8002988:	bf00      	nop
 800298a:	9b01      	ldr	r3, [sp, #4]
 800298c:	1e5a      	subs	r2, r3, #1
 800298e:	9201      	str	r2, [sp, #4]
 8002990:	2b00      	cmp	r3, #0
 8002992:	d1f9      	bne.n	8002988 <HAL_RCC_OscConfig+0x16c>
 8002994:	e750      	b.n	8002838 <HAL_RCC_OscConfig+0x1c>
 8002996:	f7ff fb75 	bl	8002084 <HAL_GetTick>
 800299a:	1b00      	subs	r0, r0, r4
 800299c:	2802      	cmp	r0, #2
 800299e:	d9e9      	bls.n	8002974 <HAL_RCC_OscConfig+0x158>
 80029a0:	e77d      	b.n	800289e <HAL_RCC_OscConfig+0x82>
 80029a2:	601a      	str	r2, [r3, #0]
 80029a4:	f7ff fb6e 	bl	8002084 <HAL_GetTick>
 80029a8:	4604      	mov	r4, r0
 80029aa:	6a73      	ldr	r3, [r6, #36]	; 0x24
 80029ac:	079f      	lsls	r7, r3, #30
 80029ae:	f57f af43 	bpl.w	8002838 <HAL_RCC_OscConfig+0x1c>
 80029b2:	f7ff fb67 	bl	8002084 <HAL_GetTick>
 80029b6:	1b00      	subs	r0, r0, r4
 80029b8:	2802      	cmp	r0, #2
 80029ba:	d9f6      	bls.n	80029aa <HAL_RCC_OscConfig+0x18e>
 80029bc:	e76f      	b.n	800289e <HAL_RCC_OscConfig+0x82>
 80029be:	4c33      	ldr	r4, [pc, #204]	; (8002a8c <HAL_RCC_OscConfig+0x270>)
 80029c0:	69e3      	ldr	r3, [r4, #28]
 80029c2:	00d8      	lsls	r0, r3, #3
 80029c4:	d424      	bmi.n	8002a10 <HAL_RCC_OscConfig+0x1f4>
 80029c6:	2701      	movs	r7, #1
 80029c8:	69e3      	ldr	r3, [r4, #28]
 80029ca:	f043 5380 	orr.w	r3, r3, #268435456	; 0x10000000
 80029ce:	61e3      	str	r3, [r4, #28]
 80029d0:	69e3      	ldr	r3, [r4, #28]
 80029d2:	f003 5380 	and.w	r3, r3, #268435456	; 0x10000000
 80029d6:	9300      	str	r3, [sp, #0]
 80029d8:	9b00      	ldr	r3, [sp, #0]
 80029da:	4e30      	ldr	r6, [pc, #192]	; (8002a9c <HAL_RCC_OscConfig+0x280>)
 80029dc:	6833      	ldr	r3, [r6, #0]
 80029de:	05d9      	lsls	r1, r3, #23
 80029e0:	d518      	bpl.n	8002a14 <HAL_RCC_OscConfig+0x1f8>
 80029e2:	68eb      	ldr	r3, [r5, #12]
 80029e4:	2b01      	cmp	r3, #1
 80029e6:	d126      	bne.n	8002a36 <HAL_RCC_OscConfig+0x21a>
 80029e8:	6a23      	ldr	r3, [r4, #32]
 80029ea:	f043 0301 	orr.w	r3, r3, #1
 80029ee:	6223      	str	r3, [r4, #32]
 80029f0:	f7ff fb48 	bl	8002084 <HAL_GetTick>
 80029f4:	f241 3888 	movw	r8, #5000	; 0x1388
 80029f8:	4606      	mov	r6, r0
 80029fa:	6a23      	ldr	r3, [r4, #32]
 80029fc:	079b      	lsls	r3, r3, #30
 80029fe:	d53f      	bpl.n	8002a80 <HAL_RCC_OscConfig+0x264>
 8002a00:	2f00      	cmp	r7, #0
 8002a02:	f43f af1d 	beq.w	8002840 <HAL_RCC_OscConfig+0x24>
 8002a06:	69e3      	ldr	r3, [r4, #28]
 8002a08:	f023 5380 	bic.w	r3, r3, #268435456	; 0x10000000
 8002a0c:	61e3      	str	r3, [r4, #28]
 8002a0e:	e717      	b.n	8002840 <HAL_RCC_OscConfig+0x24>
 8002a10:	2700      	movs	r7, #0
 8002a12:	e7e2      	b.n	80029da <HAL_RCC_OscConfig+0x1be>
 8002a14:	6833      	ldr	r3, [r6, #0]
 8002a16:	f443 7380 	orr.w	r3, r3, #256	; 0x100
 8002a1a:	6033      	str	r3, [r6, #0]
 8002a1c:	f7ff fb32 	bl	8002084 <HAL_GetTick>
 8002a20:	4680      	mov	r8, r0
 8002a22:	6833      	ldr	r3, [r6, #0]
 8002a24:	05da      	lsls	r2, r3, #23
 8002a26:	d4dc      	bmi.n	80029e2 <HAL_RCC_OscConfig+0x1c6>
 8002a28:	f7ff fb2c 	bl	8002084 <HAL_GetTick>
 8002a2c:	eba0 0008 	sub.w	r0, r0, r8
 8002a30:	2864      	cmp	r0, #100	; 0x64
 8002a32:	d9f6      	bls.n	8002a22 <HAL_RCC_OscConfig+0x206>
 8002a34:	e733      	b.n	800289e <HAL_RCC_OscConfig+0x82>
 8002a36:	b9ab      	cbnz	r3, 8002a64 <HAL_RCC_OscConfig+0x248>
 8002a38:	6a23      	ldr	r3, [r4, #32]
 8002a3a:	f241 3888 	movw	r8, #5000	; 0x1388
 8002a3e:	f023 0301 	bic.w	r3, r3, #1
 8002a42:	6223      	str	r3, [r4, #32]
 8002a44:	6a23      	ldr	r3, [r4, #32]
 8002a46:	f023 0304 	bic.w	r3, r3, #4
 8002a4a:	6223      	str	r3, [r4, #32]
 8002a4c:	f7ff fb1a 	bl	8002084 <HAL_GetTick>
 8002a50:	4606      	mov	r6, r0
 8002a52:	6a23      	ldr	r3, [r4, #32]
 8002a54:	0798      	lsls	r0, r3, #30
 8002a56:	d5d3      	bpl.n	8002a00 <HAL_RCC_OscConfig+0x1e4>
 8002a58:	f7ff fb14 	bl	8002084 <HAL_GetTick>
 8002a5c:	1b80      	subs	r0, r0, r6
 8002a5e:	4540      	cmp	r0, r8
 8002a60:	d9f7      	bls.n	8002a52 <HAL_RCC_OscConfig+0x236>
 8002a62:	e71c      	b.n	800289e <HAL_RCC_OscConfig+0x82>
 8002a64:	2b05      	cmp	r3, #5
 8002a66:	6a23      	ldr	r3, [r4, #32]
 8002a68:	d103      	bne.n	8002a72 <HAL_RCC_OscConfig+0x256>
 8002a6a:	f043 0304 	orr.w	r3, r3, #4
 8002a6e:	6223      	str	r3, [r4, #32]
 8002a70:	e7ba      	b.n	80029e8 <HAL_RCC_OscConfig+0x1cc>
 8002a72:	f023 0301 	bic.w	r3, r3, #1
 8002a76:	6223      	str	r3, [r4, #32]
 8002a78:	6a23      	ldr	r3, [r4, #32]
 8002a7a:	f023 0304 	bic.w	r3, r3, #4
 8002a7e:	e7b6      	b.n	80029ee <HAL_RCC_OscConfig+0x1d2>
 8002a80:	f7ff fb00 	bl	8002084 <HAL_GetTick>
 8002a84:	1b80      	subs	r0, r0, r6
 8002a86:	4540      	cmp	r0, r8
 8002a88:	d9b7      	bls.n	80029fa <HAL_RCC_OscConfig+0x1de>
 8002a8a:	e708      	b.n	800289e <HAL_RCC_OscConfig+0x82>
 8002a8c:	40021000 	.word	0x40021000
 8002a90:	42420000 	.word	0x42420000
 8002a94:	42420480 	.word	0x42420480
 8002a98:	20000034 	.word	0x20000034
 8002a9c:	40007000 	.word	0x40007000
 8002aa0:	4b2a      	ldr	r3, [pc, #168]	; (8002b4c <HAL_RCC_OscConfig+0x330>)
 8002aa2:	685a      	ldr	r2, [r3, #4]
 8002aa4:	461c      	mov	r4, r3
 8002aa6:	f002 020c 	and.w	r2, r2, #12
 8002aaa:	2a08      	cmp	r2, #8
 8002aac:	d03d      	beq.n	8002b2a <HAL_RCC_OscConfig+0x30e>
 8002aae:	2300      	movs	r3, #0
 8002ab0:	4e27      	ldr	r6, [pc, #156]	; (8002b50 <HAL_RCC_OscConfig+0x334>)
 8002ab2:	2802      	cmp	r0, #2
 8002ab4:	6033      	str	r3, [r6, #0]
 8002ab6:	d12b      	bne.n	8002b10 <HAL_RCC_OscConfig+0x2f4>
 8002ab8:	f7ff fae4 	bl	8002084 <HAL_GetTick>
 8002abc:	4607      	mov	r7, r0
 8002abe:	6823      	ldr	r3, [r4, #0]
 8002ac0:	0199      	lsls	r1, r3, #6
 8002ac2:	d41f      	bmi.n	8002b04 <HAL_RCC_OscConfig+0x2e8>
 8002ac4:	6a2b      	ldr	r3, [r5, #32]
 8002ac6:	f5b3 3f80 	cmp.w	r3, #65536	; 0x10000
 8002aca:	d105      	bne.n	8002ad8 <HAL_RCC_OscConfig+0x2bc>
 8002acc:	6862      	ldr	r2, [r4, #4]
 8002ace:	68a9      	ldr	r1, [r5, #8]
 8002ad0:	f422 3200 	bic.w	r2, r2, #131072	; 0x20000
 8002ad4:	430a      	orrs	r2, r1
 8002ad6:	6062      	str	r2, [r4, #4]
 8002ad8:	6a69      	ldr	r1, [r5, #36]	; 0x24
 8002ada:	6862      	ldr	r2, [r4, #4]
 8002adc:	430b      	orrs	r3, r1
 8002ade:	f422 1274 	bic.w	r2, r2, #3997696	; 0x3d0000
 8002ae2:	4313      	orrs	r3, r2
 8002ae4:	6063      	str	r3, [r4, #4]
 8002ae6:	2301      	movs	r3, #1
 8002ae8:	6033      	str	r3, [r6, #0]
 8002aea:	f7ff facb 	bl	8002084 <HAL_GetTick>
 8002aee:	4605      	mov	r5, r0
 8002af0:	6823      	ldr	r3, [r4, #0]
 8002af2:	019a      	lsls	r2, r3, #6
 8002af4:	f53f aea8 	bmi.w	8002848 <HAL_RCC_OscConfig+0x2c>
 8002af8:	f7ff fac4 	bl	8002084 <HAL_GetTick>
 8002afc:	1b40      	subs	r0, r0, r5
 8002afe:	2802      	cmp	r0, #2
 8002b00:	d9f6      	bls.n	8002af0 <HAL_RCC_OscConfig+0x2d4>
 8002b02:	e6cc      	b.n	800289e <HAL_RCC_OscConfig+0x82>
 8002b04:	f7ff fabe 	bl	8002084 <HAL_GetTick>
 8002b08:	1bc0      	subs	r0, r0, r7
 8002b0a:	2802      	cmp	r0, #2
 8002b0c:	d9d7      	bls.n	8002abe <HAL_RCC_OscConfig+0x2a2>
 8002b0e:	e6c6      	b.n	800289e <HAL_RCC_OscConfig+0x82>
 8002b10:	f7ff fab8 	bl	8002084 <HAL_GetTick>
 8002b14:	4605      	mov	r5, r0
 8002b16:	6823      	ldr	r3, [r4, #0]
 8002b18:	019b      	lsls	r3, r3, #6
 8002b1a:	f57f ae95 	bpl.w	8002848 <HAL_RCC_OscConfig+0x2c>
 8002b1e:	f7ff fab1 	bl	8002084 <HAL_GetTick>
 8002b22:	1b40      	subs	r0, r0, r5
 8002b24:	2802      	cmp	r0, #2
 8002b26:	d9f6      	bls.n	8002b16 <HAL_RCC_OscConfig+0x2fa>
 8002b28:	e6b9      	b.n	800289e <HAL_RCC_OscConfig+0x82>
 8002b2a:	2801      	cmp	r0, #1
 8002b2c:	f43f aeb8 	beq.w	80028a0 <HAL_RCC_OscConfig+0x84>
 8002b30:	685b      	ldr	r3, [r3, #4]
 8002b32:	6a2a      	ldr	r2, [r5, #32]
 8002b34:	f403 3180 	and.w	r1, r3, #65536	; 0x10000
 8002b38:	4291      	cmp	r1, r2
 8002b3a:	f47f ae9b 	bne.w	8002874 <HAL_RCC_OscConfig+0x58>
 8002b3e:	6a6a      	ldr	r2, [r5, #36]	; 0x24
 8002b40:	f403 1370 	and.w	r3, r3, #3932160	; 0x3c0000
 8002b44:	4293      	cmp	r3, r2
 8002b46:	f43f ae7f 	beq.w	8002848 <HAL_RCC_OscConfig+0x2c>
 8002b4a:	e693      	b.n	8002874 <HAL_RCC_OscConfig+0x58>
 8002b4c:	40021000 	.word	0x40021000
 8002b50:	42420060 	.word	0x42420060

08002b54 <HAL_RCC_GetSysClockFreq>:
 8002b54:	b530      	push	{r4, r5, lr}
 8002b56:	4b18      	ldr	r3, [pc, #96]	; (8002bb8 <HAL_RCC_GetSysClockFreq+0x64>)
 8002b58:	b087      	sub	sp, #28
 8002b5a:	ac02      	add	r4, sp, #8
 8002b5c:	f103 0510 	add.w	r5, r3, #16
 8002b60:	4622      	mov	r2, r4
 8002b62:	6818      	ldr	r0, [r3, #0]
 8002b64:	6859      	ldr	r1, [r3, #4]
 8002b66:	3308      	adds	r3, #8
 8002b68:	c203      	stmia	r2!, {r0, r1}
 8002b6a:	42ab      	cmp	r3, r5
 8002b6c:	4614      	mov	r4, r2
 8002b6e:	d1f7      	bne.n	8002b60 <HAL_RCC_GetSysClockFreq+0xc>
 8002b70:	f240 2301 	movw	r3, #513	; 0x201
 8002b74:	4911      	ldr	r1, [pc, #68]	; (8002bbc <HAL_RCC_GetSysClockFreq+0x68>)
 8002b76:	f8ad 3004 	strh.w	r3, [sp, #4]
 8002b7a:	684b      	ldr	r3, [r1, #4]
 8002b7c:	f003 020c 	and.w	r2, r3, #12
 8002b80:	2a08      	cmp	r2, #8
 8002b82:	d117      	bne.n	8002bb4 <HAL_RCC_GetSysClockFreq+0x60>
 8002b84:	f3c3 4283 	ubfx	r2, r3, #18, #4
 8002b88:	a806      	add	r0, sp, #24
 8002b8a:	4402      	add	r2, r0
 8002b8c:	03db      	lsls	r3, r3, #15
 8002b8e:	f812 2c10 	ldrb.w	r2, [r2, #-16]
 8002b92:	d50c      	bpl.n	8002bae <HAL_RCC_GetSysClockFreq+0x5a>
 8002b94:	684b      	ldr	r3, [r1, #4]
 8002b96:	480a      	ldr	r0, [pc, #40]	; (8002bc0 <HAL_RCC_GetSysClockFreq+0x6c>)
 8002b98:	f3c3 4340 	ubfx	r3, r3, #17, #1
 8002b9c:	4350      	muls	r0, r2
 8002b9e:	aa06      	add	r2, sp, #24
 8002ba0:	4413      	add	r3, r2
 8002ba2:	f813 3c14 	ldrb.w	r3, [r3, #-20]
 8002ba6:	fbb0 f0f3 	udiv	r0, r0, r3
 8002baa:	b007      	add	sp, #28
 8002bac:	bd30      	pop	{r4, r5, pc}
 8002bae:	4805      	ldr	r0, [pc, #20]	; (8002bc4 <HAL_RCC_GetSysClockFreq+0x70>)
 8002bb0:	4350      	muls	r0, r2
 8002bb2:	e7fa      	b.n	8002baa <HAL_RCC_GetSysClockFreq+0x56>
 8002bb4:	4802      	ldr	r0, [pc, #8]	; (8002bc0 <HAL_RCC_GetSysClockFreq+0x6c>)
 8002bb6:	e7f8      	b.n	8002baa <HAL_RCC_GetSysClockFreq+0x56>
 8002bb8:	08005440 	.word	0x08005440
 8002bbc:	40021000 	.word	0x40021000
 8002bc0:	007a1200 	.word	0x007a1200
 8002bc4:	003d0900 	.word	0x003d0900

08002bc8 <HAL_RCC_ClockConfig>:
 8002bc8:	e92d 41f0 	stmdb	sp!, {r4, r5, r6, r7, r8, lr}
 8002bcc:	460d      	mov	r5, r1
 8002bce:	4604      	mov	r4, r0
 8002bd0:	b910      	cbnz	r0, 8002bd8 <HAL_RCC_ClockConfig+0x10>
 8002bd2:	2001      	movs	r0, #1
 8002bd4:	e8bd 81f0 	ldmia.w	sp!, {r4, r5, r6, r7, r8, pc}
 8002bd8:	4a44      	ldr	r2, [pc, #272]	; (8002cec <HAL_RCC_ClockConfig+0x124>)
 8002bda:	6813      	ldr	r3, [r2, #0]
 8002bdc:	f003 0307 	and.w	r3, r3, #7
 8002be0:	428b      	cmp	r3, r1
 8002be2:	d328      	bcc.n	8002c36 <HAL_RCC_ClockConfig+0x6e>
 8002be4:	6821      	ldr	r1, [r4, #0]
 8002be6:	078e      	lsls	r6, r1, #30
 8002be8:	d430      	bmi.n	8002c4c <HAL_RCC_ClockConfig+0x84>
 8002bea:	07ca      	lsls	r2, r1, #31
 8002bec:	d443      	bmi.n	8002c76 <HAL_RCC_ClockConfig+0xae>
 8002bee:	4a3f      	ldr	r2, [pc, #252]	; (8002cec <HAL_RCC_ClockConfig+0x124>)
 8002bf0:	6813      	ldr	r3, [r2, #0]
 8002bf2:	f003 0307 	and.w	r3, r3, #7
 8002bf6:	42ab      	cmp	r3, r5
 8002bf8:	d865      	bhi.n	8002cc6 <HAL_RCC_ClockConfig+0xfe>
 8002bfa:	6822      	ldr	r2, [r4, #0]
 8002bfc:	4d3c      	ldr	r5, [pc, #240]	; (8002cf0 <HAL_RCC_ClockConfig+0x128>)
 8002bfe:	f012 0f04 	tst.w	r2, #4
 8002c02:	d16c      	bne.n	8002cde <HAL_RCC_ClockConfig+0x116>
 8002c04:	0713      	lsls	r3, r2, #28
 8002c06:	d506      	bpl.n	8002c16 <HAL_RCC_ClockConfig+0x4e>
 8002c08:	686b      	ldr	r3, [r5, #4]
 8002c0a:	6922      	ldr	r2, [r4, #16]
 8002c0c:	f423 5360 	bic.w	r3, r3, #14336	; 0x3800
 8002c10:	ea43 03c2 	orr.w	r3, r3, r2, lsl #3
 8002c14:	606b      	str	r3, [r5, #4]
 8002c16:	f7ff ff9d 	bl	8002b54 <HAL_RCC_GetSysClockFreq>
 8002c1a:	686b      	ldr	r3, [r5, #4]
 8002c1c:	4a35      	ldr	r2, [pc, #212]	; (8002cf4 <HAL_RCC_ClockConfig+0x12c>)
 8002c1e:	f3c3 1303 	ubfx	r3, r3, #4, #4
 8002c22:	5cd3      	ldrb	r3, [r2, r3]
 8002c24:	40d8      	lsrs	r0, r3
 8002c26:	4b34      	ldr	r3, [pc, #208]	; (8002cf8 <HAL_RCC_ClockConfig+0x130>)
 8002c28:	6018      	str	r0, [r3, #0]
 8002c2a:	4b34      	ldr	r3, [pc, #208]	; (8002cfc <HAL_RCC_ClockConfig+0x134>)
 8002c2c:	6818      	ldr	r0, [r3, #0]
 8002c2e:	f7ff f9e7 	bl	8002000 <HAL_InitTick>
 8002c32:	2000      	movs	r0, #0
 8002c34:	e7ce      	b.n	8002bd4 <HAL_RCC_ClockConfig+0xc>
 8002c36:	6813      	ldr	r3, [r2, #0]
 8002c38:	f023 0307 	bic.w	r3, r3, #7
 8002c3c:	430b      	orrs	r3, r1
 8002c3e:	6013      	str	r3, [r2, #0]
 8002c40:	6813      	ldr	r3, [r2, #0]
 8002c42:	f003 0307 	and.w	r3, r3, #7
 8002c46:	428b      	cmp	r3, r1
 8002c48:	d1c3      	bne.n	8002bd2 <HAL_RCC_ClockConfig+0xa>
 8002c4a:	e7cb      	b.n	8002be4 <HAL_RCC_ClockConfig+0x1c>
 8002c4c:	4b28      	ldr	r3, [pc, #160]	; (8002cf0 <HAL_RCC_ClockConfig+0x128>)
 8002c4e:	f011 0f04 	tst.w	r1, #4
 8002c52:	bf1e      	ittt	ne
 8002c54:	685a      	ldrne	r2, [r3, #4]
 8002c56:	f442 62e0 	orrne.w	r2, r2, #1792	; 0x700
 8002c5a:	605a      	strne	r2, [r3, #4]
 8002c5c:	0708      	lsls	r0, r1, #28
 8002c5e:	bf42      	ittt	mi
 8002c60:	685a      	ldrmi	r2, [r3, #4]
 8002c62:	f442 5260 	orrmi.w	r2, r2, #14336	; 0x3800
 8002c66:	605a      	strmi	r2, [r3, #4]
 8002c68:	685a      	ldr	r2, [r3, #4]
 8002c6a:	68a0      	ldr	r0, [r4, #8]
 8002c6c:	f022 02f0 	bic.w	r2, r2, #240	; 0xf0
 8002c70:	4302      	orrs	r2, r0
 8002c72:	605a      	str	r2, [r3, #4]
 8002c74:	e7b9      	b.n	8002bea <HAL_RCC_ClockConfig+0x22>
 8002c76:	6862      	ldr	r2, [r4, #4]
 8002c78:	4e1d      	ldr	r6, [pc, #116]	; (8002cf0 <HAL_RCC_ClockConfig+0x128>)
 8002c7a:	2a01      	cmp	r2, #1
 8002c7c:	6833      	ldr	r3, [r6, #0]
 8002c7e:	d11a      	bne.n	8002cb6 <HAL_RCC_ClockConfig+0xee>
 8002c80:	f413 3f00 	tst.w	r3, #131072	; 0x20000
 8002c84:	d0a5      	beq.n	8002bd2 <HAL_RCC_ClockConfig+0xa>
 8002c86:	6873      	ldr	r3, [r6, #4]
 8002c88:	f241 3888 	movw	r8, #5000	; 0x1388
 8002c8c:	f023 0303 	bic.w	r3, r3, #3
 8002c90:	4313      	orrs	r3, r2
 8002c92:	6073      	str	r3, [r6, #4]
 8002c94:	f7ff f9f6 	bl	8002084 <HAL_GetTick>
 8002c98:	4607      	mov	r7, r0
 8002c9a:	6873      	ldr	r3, [r6, #4]
 8002c9c:	6862      	ldr	r2, [r4, #4]
 8002c9e:	f003 030c 	and.w	r3, r3, #12
 8002ca2:	ebb3 0f82 	cmp.w	r3, r2, lsl #2
 8002ca6:	d0a2      	beq.n	8002bee <HAL_RCC_ClockConfig+0x26>
 8002ca8:	f7ff f9ec 	bl	8002084 <HAL_GetTick>
 8002cac:	1bc0      	subs	r0, r0, r7
 8002cae:	4540      	cmp	r0, r8
 8002cb0:	d9f3      	bls.n	8002c9a <HAL_RCC_ClockConfig+0xd2>
 8002cb2:	2003      	movs	r0, #3
 8002cb4:	e78e      	b.n	8002bd4 <HAL_RCC_ClockConfig+0xc>
 8002cb6:	2a02      	cmp	r2, #2
 8002cb8:	d102      	bne.n	8002cc0 <HAL_RCC_ClockConfig+0xf8>
 8002cba:	f013 7f00 	tst.w	r3, #33554432	; 0x2000000
 8002cbe:	e7e1      	b.n	8002c84 <HAL_RCC_ClockConfig+0xbc>
 8002cc0:	f013 0f02 	tst.w	r3, #2
 8002cc4:	e7de      	b.n	8002c84 <HAL_RCC_ClockConfig+0xbc>
 8002cc6:	6813      	ldr	r3, [r2, #0]
 8002cc8:	f023 0307 	bic.w	r3, r3, #7
 8002ccc:	432b      	orrs	r3, r5
 8002cce:	6013      	str	r3, [r2, #0]
 8002cd0:	6813      	ldr	r3, [r2, #0]
 8002cd2:	f003 0307 	and.w	r3, r3, #7
 8002cd6:	42ab      	cmp	r3, r5
 8002cd8:	f47f af7b 	bne.w	8002bd2 <HAL_RCC_ClockConfig+0xa>
 8002cdc:	e78d      	b.n	8002bfa <HAL_RCC_ClockConfig+0x32>
 8002cde:	686b      	ldr	r3, [r5, #4]
 8002ce0:	68e1      	ldr	r1, [r4, #12]
 8002ce2:	f423 63e0 	bic.w	r3, r3, #1792	; 0x700
 8002ce6:	430b      	orrs	r3, r1
 8002ce8:	606b      	str	r3, [r5, #4]
 8002cea:	e78b      	b.n	8002c04 <HAL_RCC_ClockConfig+0x3c>
 8002cec:	40022000 	.word	0x40022000
 8002cf0:	40021000 	.word	0x40021000
 8002cf4:	08005428 	.word	0x08005428
 8002cf8:	20000034 	.word	0x20000034
 8002cfc:	2000003c 	.word	0x2000003c

08002d00 <HAL_RCC_GetPCLK2Freq>:
 8002d00:	4b04      	ldr	r3, [pc, #16]	; (8002d14 <HAL_RCC_GetPCLK2Freq+0x14>)
 8002d02:	4a05      	ldr	r2, [pc, #20]	; (8002d18 <HAL_RCC_GetPCLK2Freq+0x18>)
 8002d04:	685b      	ldr	r3, [r3, #4]
 8002d06:	f3c3 23c2 	ubfx	r3, r3, #11, #3
 8002d0a:	5cd3      	ldrb	r3, [r2, r3]
 8002d0c:	4a03      	ldr	r2, [pc, #12]	; (8002d1c <HAL_RCC_GetPCLK2Freq+0x1c>)
 8002d0e:	6810      	ldr	r0, [r2, #0]
 8002d10:	40d8      	lsrs	r0, r3
 8002d12:	4770      	bx	lr
 8002d14:	40021000 	.word	0x40021000
 8002d18:	08005438 	.word	0x08005438
 8002d1c:	20000034 	.word	0x20000034

08002d20 <HAL_RCCEx_PeriphCLKConfig>:
 8002d20:	6803      	ldr	r3, [r0, #0]
 8002d22:	e92d 41f3 	stmdb	sp!, {r0, r1, r4, r5, r6, r7, r8, lr}
 8002d26:	07d9      	lsls	r1, r3, #31
 8002d28:	4605      	mov	r5, r0
 8002d2a:	d520      	bpl.n	8002d6e <HAL_RCCEx_PeriphCLKConfig+0x4e>
 8002d2c:	4c35      	ldr	r4, [pc, #212]	; (8002e04 <HAL_RCCEx_PeriphCLKConfig+0xe4>)
 8002d2e:	69e3      	ldr	r3, [r4, #28]
 8002d30:	00da      	lsls	r2, r3, #3
 8002d32:	d432      	bmi.n	8002d9a <HAL_RCCEx_PeriphCLKConfig+0x7a>
 8002d34:	2701      	movs	r7, #1
 8002d36:	69e3      	ldr	r3, [r4, #28]
 8002d38:	f043 5380 	orr.w	r3, r3, #268435456	; 0x10000000
 8002d3c:	61e3      	str	r3, [r4, #28]
 8002d3e:	69e3      	ldr	r3, [r4, #28]
 8002d40:	f003 5380 	and.w	r3, r3, #268435456	; 0x10000000
 8002d44:	9301      	str	r3, [sp, #4]
 8002d46:	9b01      	ldr	r3, [sp, #4]
 8002d48:	4e2f      	ldr	r6, [pc, #188]	; (8002e08 <HAL_RCCEx_PeriphCLKConfig+0xe8>)
 8002d4a:	6833      	ldr	r3, [r6, #0]
 8002d4c:	05db      	lsls	r3, r3, #23
 8002d4e:	d526      	bpl.n	8002d9e <HAL_RCCEx_PeriphCLKConfig+0x7e>
 8002d50:	6a23      	ldr	r3, [r4, #32]
 8002d52:	f413 7340 	ands.w	r3, r3, #768	; 0x300
 8002d56:	d136      	bne.n	8002dc6 <HAL_RCCEx_PeriphCLKConfig+0xa6>
 8002d58:	6a23      	ldr	r3, [r4, #32]
 8002d5a:	686a      	ldr	r2, [r5, #4]
 8002d5c:	f423 7340 	bic.w	r3, r3, #768	; 0x300
 8002d60:	4313      	orrs	r3, r2
 8002d62:	6223      	str	r3, [r4, #32]
 8002d64:	b11f      	cbz	r7, 8002d6e <HAL_RCCEx_PeriphCLKConfig+0x4e>
 8002d66:	69e3      	ldr	r3, [r4, #28]
 8002d68:	f023 5380 	bic.w	r3, r3, #268435456	; 0x10000000
 8002d6c:	61e3      	str	r3, [r4, #28]
 8002d6e:	6828      	ldr	r0, [r5, #0]
 8002d70:	0783      	lsls	r3, r0, #30
 8002d72:	d506      	bpl.n	8002d82 <HAL_RCCEx_PeriphCLKConfig+0x62>
 8002d74:	4923      	ldr	r1, [pc, #140]	; (8002e04 <HAL_RCCEx_PeriphCLKConfig+0xe4>)
 8002d76:	68ab      	ldr	r3, [r5, #8]
 8002d78:	684a      	ldr	r2, [r1, #4]
 8002d7a:	f422 4240 	bic.w	r2, r2, #49152	; 0xc000
 8002d7e:	431a      	orrs	r2, r3
 8002d80:	604a      	str	r2, [r1, #4]
 8002d82:	f010 0010 	ands.w	r0, r0, #16
 8002d86:	d01b      	beq.n	8002dc0 <HAL_RCCEx_PeriphCLKConfig+0xa0>
 8002d88:	4a1e      	ldr	r2, [pc, #120]	; (8002e04 <HAL_RCCEx_PeriphCLKConfig+0xe4>)
 8002d8a:	68e9      	ldr	r1, [r5, #12]
 8002d8c:	6853      	ldr	r3, [r2, #4]
 8002d8e:	2000      	movs	r0, #0
 8002d90:	f423 0380 	bic.w	r3, r3, #4194304	; 0x400000
 8002d94:	430b      	orrs	r3, r1
 8002d96:	6053      	str	r3, [r2, #4]
 8002d98:	e012      	b.n	8002dc0 <HAL_RCCEx_PeriphCLKConfig+0xa0>
 8002d9a:	2700      	movs	r7, #0
 8002d9c:	e7d4      	b.n	8002d48 <HAL_RCCEx_PeriphCLKConfig+0x28>
 8002d9e:	6833      	ldr	r3, [r6, #0]
 8002da0:	f443 7380 	orr.w	r3, r3, #256	; 0x100
 8002da4:	6033      	str	r3, [r6, #0]
 8002da6:	f7ff f96d 	bl	8002084 <HAL_GetTick>
 8002daa:	4680      	mov	r8, r0
 8002dac:	6833      	ldr	r3, [r6, #0]
 8002dae:	05d8      	lsls	r0, r3, #23
 8002db0:	d4ce      	bmi.n	8002d50 <HAL_RCCEx_PeriphCLKConfig+0x30>
 8002db2:	f7ff f967 	bl	8002084 <HAL_GetTick>
 8002db6:	eba0 0008 	sub.w	r0, r0, r8
 8002dba:	2864      	cmp	r0, #100	; 0x64
 8002dbc:	d9f6      	bls.n	8002dac <HAL_RCCEx_PeriphCLKConfig+0x8c>
 8002dbe:	2003      	movs	r0, #3
 8002dc0:	b002      	add	sp, #8
 8002dc2:	e8bd 81f0 	ldmia.w	sp!, {r4, r5, r6, r7, r8, pc}
 8002dc6:	686a      	ldr	r2, [r5, #4]
 8002dc8:	f402 7240 	and.w	r2, r2, #768	; 0x300
 8002dcc:	429a      	cmp	r2, r3
 8002dce:	d0c3      	beq.n	8002d58 <HAL_RCCEx_PeriphCLKConfig+0x38>
 8002dd0:	2001      	movs	r0, #1
 8002dd2:	4a0e      	ldr	r2, [pc, #56]	; (8002e0c <HAL_RCCEx_PeriphCLKConfig+0xec>)
 8002dd4:	6a23      	ldr	r3, [r4, #32]
 8002dd6:	6010      	str	r0, [r2, #0]
 8002dd8:	2000      	movs	r0, #0
 8002dda:	f423 7140 	bic.w	r1, r3, #768	; 0x300
 8002dde:	6010      	str	r0, [r2, #0]
 8002de0:	6221      	str	r1, [r4, #32]
 8002de2:	07d9      	lsls	r1, r3, #31
 8002de4:	d5b8      	bpl.n	8002d58 <HAL_RCCEx_PeriphCLKConfig+0x38>
 8002de6:	f7ff f94d 	bl	8002084 <HAL_GetTick>
 8002dea:	f241 3888 	movw	r8, #5000	; 0x1388
 8002dee:	4606      	mov	r6, r0
 8002df0:	6a23      	ldr	r3, [r4, #32]
 8002df2:	079a      	lsls	r2, r3, #30
 8002df4:	d4b0      	bmi.n	8002d58 <HAL_RCCEx_PeriphCLKConfig+0x38>
 8002df6:	f7ff f945 	bl	8002084 <HAL_GetTick>
 8002dfa:	1b80      	subs	r0, r0, r6
 8002dfc:	4540      	cmp	r0, r8
 8002dfe:	d9f7      	bls.n	8002df0 <HAL_RCCEx_PeriphCLKConfig+0xd0>
 8002e00:	e7dd      	b.n	8002dbe <HAL_RCCEx_PeriphCLKConfig+0x9e>
 8002e02:	bf00      	nop
 8002e04:	40021000 	.word	0x40021000
 8002e08:	40007000 	.word	0x40007000
 8002e0c:	42420440 	.word	0x42420440

08002e10 <HAL_RCCEx_GetPeriphCLKFreq>:
 8002e10:	4602      	mov	r2, r0
 8002e12:	b570      	push	{r4, r5, r6, lr}
 8002e14:	4b34      	ldr	r3, [pc, #208]	; (8002ee8 <HAL_RCCEx_GetPeriphCLKFreq+0xd8>)
 8002e16:	b086      	sub	sp, #24
 8002e18:	ad02      	add	r5, sp, #8
 8002e1a:	f103 0610 	add.w	r6, r3, #16
 8002e1e:	462c      	mov	r4, r5
 8002e20:	6818      	ldr	r0, [r3, #0]
 8002e22:	6859      	ldr	r1, [r3, #4]
 8002e24:	3308      	adds	r3, #8
 8002e26:	c403      	stmia	r4!, {r0, r1}
 8002e28:	42b3      	cmp	r3, r6
 8002e2a:	4625      	mov	r5, r4
 8002e2c:	d1f7      	bne.n	8002e1e <HAL_RCCEx_GetPeriphCLKFreq+0xe>
 8002e2e:	f240 2301 	movw	r3, #513	; 0x201
 8002e32:	2a02      	cmp	r2, #2
 8002e34:	f8ad 3004 	strh.w	r3, [sp, #4]
 8002e38:	d049      	beq.n	8002ece <HAL_RCCEx_GetPeriphCLKFreq+0xbe>
 8002e3a:	2a10      	cmp	r2, #16
 8002e3c:	d003      	beq.n	8002e46 <HAL_RCCEx_GetPeriphCLKFreq+0x36>
 8002e3e:	2a01      	cmp	r2, #1
 8002e40:	d026      	beq.n	8002e90 <HAL_RCCEx_GetPeriphCLKFreq+0x80>
 8002e42:	2000      	movs	r0, #0
 8002e44:	e038      	b.n	8002eb8 <HAL_RCCEx_GetPeriphCLKFreq+0xa8>
 8002e46:	4b29      	ldr	r3, [pc, #164]	; (8002eec <HAL_RCCEx_GetPeriphCLKFreq+0xdc>)
 8002e48:	6859      	ldr	r1, [r3, #4]
 8002e4a:	6818      	ldr	r0, [r3, #0]
 8002e4c:	f010 7080 	ands.w	r0, r0, #16777216	; 0x1000000
 8002e50:	d032      	beq.n	8002eb8 <HAL_RCCEx_GetPeriphCLKFreq+0xa8>
 8002e52:	f3c1 4283 	ubfx	r2, r1, #18, #4
 8002e56:	a806      	add	r0, sp, #24
 8002e58:	4402      	add	r2, r0
 8002e5a:	f812 0c10 	ldrb.w	r0, [r2, #-16]
 8002e5e:	03ca      	lsls	r2, r1, #15
 8002e60:	bf41      	itttt	mi
 8002e62:	685a      	ldrmi	r2, [r3, #4]
 8002e64:	a906      	addmi	r1, sp, #24
 8002e66:	f3c2 4240 	ubfxmi	r2, r2, #17, #1
 8002e6a:	1852      	addmi	r2, r2, r1
 8002e6c:	bf44      	itt	mi
 8002e6e:	f812 1c14 	ldrbmi.w	r1, [r2, #-20]
 8002e72:	4a1f      	ldrmi	r2, [pc, #124]	; (8002ef0 <HAL_RCCEx_GetPeriphCLKFreq+0xe0>)
 8002e74:	685b      	ldr	r3, [r3, #4]
 8002e76:	bf4c      	ite	mi
 8002e78:	fbb2 f2f1 	udivmi	r2, r2, r1
 8002e7c:	4a1d      	ldrpl	r2, [pc, #116]	; (8002ef4 <HAL_RCCEx_GetPeriphCLKFreq+0xe4>)
 8002e7e:	025b      	lsls	r3, r3, #9
 8002e80:	fb02 f000 	mul.w	r0, r2, r0
 8002e84:	d418      	bmi.n	8002eb8 <HAL_RCCEx_GetPeriphCLKFreq+0xa8>
 8002e86:	2303      	movs	r3, #3
 8002e88:	0040      	lsls	r0, r0, #1
 8002e8a:	fbb0 f0f3 	udiv	r0, r0, r3
 8002e8e:	e013      	b.n	8002eb8 <HAL_RCCEx_GetPeriphCLKFreq+0xa8>
 8002e90:	f240 3102 	movw	r1, #770	; 0x302
 8002e94:	4a15      	ldr	r2, [pc, #84]	; (8002eec <HAL_RCCEx_GetPeriphCLKFreq+0xdc>)
 8002e96:	6a13      	ldr	r3, [r2, #32]
 8002e98:	4019      	ands	r1, r3
 8002e9a:	f5b1 7f81 	cmp.w	r1, #258	; 0x102
 8002e9e:	d01f      	beq.n	8002ee0 <HAL_RCCEx_GetPeriphCLKFreq+0xd0>
 8002ea0:	f403 7340 	and.w	r3, r3, #768	; 0x300
 8002ea4:	f5b3 7f00 	cmp.w	r3, #512	; 0x200
 8002ea8:	d108      	bne.n	8002ebc <HAL_RCCEx_GetPeriphCLKFreq+0xac>
 8002eaa:	f649 4340 	movw	r3, #40000	; 0x9c40
 8002eae:	6a50      	ldr	r0, [r2, #36]	; 0x24
 8002eb0:	f010 0002 	ands.w	r0, r0, #2
 8002eb4:	bf18      	it	ne
 8002eb6:	4618      	movne	r0, r3
 8002eb8:	b006      	add	sp, #24
 8002eba:	bd70      	pop	{r4, r5, r6, pc}
 8002ebc:	f5b3 7f40 	cmp.w	r3, #768	; 0x300
 8002ec0:	d1bf      	bne.n	8002e42 <HAL_RCCEx_GetPeriphCLKFreq+0x32>
 8002ec2:	6810      	ldr	r0, [r2, #0]
 8002ec4:	f24f 4324 	movw	r3, #62500	; 0xf424
 8002ec8:	f410 3000 	ands.w	r0, r0, #131072	; 0x20000
 8002ecc:	e7f2      	b.n	8002eb4 <HAL_RCCEx_GetPeriphCLKFreq+0xa4>
 8002ece:	f7ff ff17 	bl	8002d00 <HAL_RCC_GetPCLK2Freq>
 8002ed2:	4b06      	ldr	r3, [pc, #24]	; (8002eec <HAL_RCCEx_GetPeriphCLKFreq+0xdc>)
 8002ed4:	685b      	ldr	r3, [r3, #4]
 8002ed6:	f3c3 3381 	ubfx	r3, r3, #14, #2
 8002eda:	3301      	adds	r3, #1
 8002edc:	005b      	lsls	r3, r3, #1
 8002ede:	e7d4      	b.n	8002e8a <HAL_RCCEx_GetPeriphCLKFreq+0x7a>
 8002ee0:	f44f 4000 	mov.w	r0, #32768	; 0x8000
 8002ee4:	e7e8      	b.n	8002eb8 <HAL_RCCEx_GetPeriphCLKFreq+0xa8>
 8002ee6:	bf00      	nop
 8002ee8:	08005440 	.word	0x08005440
 8002eec:	40021000 	.word	0x40021000
 8002ef0:	007a1200 	.word	0x007a1200
 8002ef4:	003d0900 	.word	0x003d0900

08002ef8 <SPI_WaitFlagStateUntilTimeout.constprop.0>:
 8002ef8:	e92d 41f3 	stmdb	sp!, {r0, r1, r4, r5, r6, r7, r8, lr}
 8002efc:	461c      	mov	r4, r3
 8002efe:	4616      	mov	r6, r2
 8002f00:	460f      	mov	r7, r1
 8002f02:	4605      	mov	r5, r0
 8002f04:	f7ff f8be 	bl	8002084 <HAL_GetTick>
 8002f08:	4434      	add	r4, r6
 8002f0a:	1a24      	subs	r4, r4, r0
 8002f0c:	f7ff f8ba 	bl	8002084 <HAL_GetTick>
 8002f10:	4680      	mov	r8, r0
 8002f12:	4b23      	ldr	r3, [pc, #140]	; (8002fa0 <SPI_WaitFlagStateUntilTimeout.constprop.0+0xa8>)
 8002f14:	681b      	ldr	r3, [r3, #0]
 8002f16:	f3c3 33cb 	ubfx	r3, r3, #15, #12
 8002f1a:	4363      	muls	r3, r4
 8002f1c:	682a      	ldr	r2, [r5, #0]
 8002f1e:	9301      	str	r3, [sp, #4]
 8002f20:	6893      	ldr	r3, [r2, #8]
 8002f22:	ea37 0303 	bics.w	r3, r7, r3
 8002f26:	d001      	beq.n	8002f2c <SPI_WaitFlagStateUntilTimeout.constprop.0+0x34>
 8002f28:	2000      	movs	r0, #0
 8002f2a:	e02e      	b.n	8002f8a <SPI_WaitFlagStateUntilTimeout.constprop.0+0x92>
 8002f2c:	1c73      	adds	r3, r6, #1
 8002f2e:	d0f7      	beq.n	8002f20 <SPI_WaitFlagStateUntilTimeout.constprop.0+0x28>
 8002f30:	f7ff f8a8 	bl	8002084 <HAL_GetTick>
 8002f34:	eba0 0008 	sub.w	r0, r0, r8
 8002f38:	42a0      	cmp	r0, r4
 8002f3a:	d329      	bcc.n	8002f90 <SPI_WaitFlagStateUntilTimeout.constprop.0+0x98>
 8002f3c:	682b      	ldr	r3, [r5, #0]
 8002f3e:	685a      	ldr	r2, [r3, #4]
 8002f40:	f022 02e0 	bic.w	r2, r2, #224	; 0xe0
 8002f44:	605a      	str	r2, [r3, #4]
 8002f46:	686a      	ldr	r2, [r5, #4]
 8002f48:	f5b2 7f82 	cmp.w	r2, #260	; 0x104
 8002f4c:	d10a      	bne.n	8002f64 <SPI_WaitFlagStateUntilTimeout.constprop.0+0x6c>
 8002f4e:	68aa      	ldr	r2, [r5, #8]
 8002f50:	f5b2 4f00 	cmp.w	r2, #32768	; 0x8000
 8002f54:	d002      	beq.n	8002f5c <SPI_WaitFlagStateUntilTimeout.constprop.0+0x64>
 8002f56:	f5b2 6f80 	cmp.w	r2, #1024	; 0x400
 8002f5a:	d103      	bne.n	8002f64 <SPI_WaitFlagStateUntilTimeout.constprop.0+0x6c>
 8002f5c:	681a      	ldr	r2, [r3, #0]
 8002f5e:	f022 0240 	bic.w	r2, r2, #64	; 0x40
 8002f62:	601a      	str	r2, [r3, #0]
 8002f64:	6aaa      	ldr	r2, [r5, #40]	; 0x28
 8002f66:	f5b2 5f00 	cmp.w	r2, #8192	; 0x2000
 8002f6a:	d107      	bne.n	8002f7c <SPI_WaitFlagStateUntilTimeout.constprop.0+0x84>
 8002f6c:	681a      	ldr	r2, [r3, #0]
 8002f6e:	f422 5200 	bic.w	r2, r2, #8192	; 0x2000
 8002f72:	601a      	str	r2, [r3, #0]
 8002f74:	681a      	ldr	r2, [r3, #0]
 8002f76:	f442 5200 	orr.w	r2, r2, #8192	; 0x2000
 8002f7a:	601a      	str	r2, [r3, #0]
 8002f7c:	2301      	movs	r3, #1
 8002f7e:	f885 3051 	strb.w	r3, [r5, #81]	; 0x51
 8002f82:	2300      	movs	r3, #0
 8002f84:	2003      	movs	r0, #3
 8002f86:	f885 3050 	strb.w	r3, [r5, #80]	; 0x50
 8002f8a:	b002      	add	sp, #8
 8002f8c:	e8bd 81f0 	ldmia.w	sp!, {r4, r5, r6, r7, r8, pc}
 8002f90:	9b01      	ldr	r3, [sp, #4]
 8002f92:	2b00      	cmp	r3, #0
 8002f94:	9b01      	ldr	r3, [sp, #4]
 8002f96:	bf08      	it	eq
 8002f98:	2400      	moveq	r4, #0
 8002f9a:	3b01      	subs	r3, #1
 8002f9c:	e7be      	b.n	8002f1c <SPI_WaitFlagStateUntilTimeout.constprop.0+0x24>
 8002f9e:	bf00      	nop
 8002fa0:	20000034 	.word	0x20000034

08002fa4 <SPI_EndRxTxTransaction>:
 8002fa4:	b510      	push	{r4, lr}
 8002fa6:	4613      	mov	r3, r2
 8002fa8:	460a      	mov	r2, r1
 8002faa:	2180      	movs	r1, #128	; 0x80
 8002fac:	4604      	mov	r4, r0
 8002fae:	f7ff ffa3 	bl	8002ef8 <SPI_WaitFlagStateUntilTimeout.constprop.0>
 8002fb2:	b120      	cbz	r0, 8002fbe <SPI_EndRxTxTransaction+0x1a>
 8002fb4:	2003      	movs	r0, #3
 8002fb6:	6d63      	ldr	r3, [r4, #84]	; 0x54
 8002fb8:	f043 0320 	orr.w	r3, r3, #32
 8002fbc:	6563      	str	r3, [r4, #84]	; 0x54
 8002fbe:	bd10      	pop	{r4, pc}

08002fc0 <HAL_SPI_Init>:
 8002fc0:	b510      	push	{r4, lr}
 8002fc2:	4604      	mov	r4, r0
 8002fc4:	2800      	cmp	r0, #0
 8002fc6:	d051      	beq.n	800306c <HAL_SPI_Init+0xac>
 8002fc8:	6a43      	ldr	r3, [r0, #36]	; 0x24
 8002fca:	2b00      	cmp	r3, #0
 8002fcc:	d14a      	bne.n	8003064 <HAL_SPI_Init+0xa4>
 8002fce:	6842      	ldr	r2, [r0, #4]
 8002fd0:	f5b2 7f82 	cmp.w	r2, #260	; 0x104
 8002fd4:	d000      	beq.n	8002fd8 <HAL_SPI_Init+0x18>
 8002fd6:	61c3      	str	r3, [r0, #28]
 8002fd8:	2300      	movs	r3, #0
 8002fda:	62a3      	str	r3, [r4, #40]	; 0x28
 8002fdc:	f894 3051 	ldrb.w	r3, [r4, #81]	; 0x51
 8002fe0:	f003 02ff 	and.w	r2, r3, #255	; 0xff
 8002fe4:	b923      	cbnz	r3, 8002ff0 <HAL_SPI_Init+0x30>
 8002fe6:	4620      	mov	r0, r4
 8002fe8:	f884 2050 	strb.w	r2, [r4, #80]	; 0x50
 8002fec:	f7fe fefc 	bl	8001de8 <HAL_SPI_MspInit>
 8002ff0:	2302      	movs	r3, #2
 8002ff2:	6822      	ldr	r2, [r4, #0]
 8002ff4:	f884 3051 	strb.w	r3, [r4, #81]	; 0x51
 8002ff8:	6813      	ldr	r3, [r2, #0]
 8002ffa:	68a0      	ldr	r0, [r4, #8]
 8002ffc:	f023 0340 	bic.w	r3, r3, #64	; 0x40
 8003000:	6013      	str	r3, [r2, #0]
 8003002:	6863      	ldr	r3, [r4, #4]
 8003004:	f400 4004 	and.w	r0, r0, #33792	; 0x8400
 8003008:	f403 7382 	and.w	r3, r3, #260	; 0x104
 800300c:	4303      	orrs	r3, r0
 800300e:	68e0      	ldr	r0, [r4, #12]
 8003010:	69a1      	ldr	r1, [r4, #24]
 8003012:	f400 6000 	and.w	r0, r0, #2048	; 0x800
 8003016:	4303      	orrs	r3, r0
 8003018:	6920      	ldr	r0, [r4, #16]
 800301a:	f000 0002 	and.w	r0, r0, #2
 800301e:	4303      	orrs	r3, r0
 8003020:	6960      	ldr	r0, [r4, #20]
 8003022:	f000 0001 	and.w	r0, r0, #1
 8003026:	4303      	orrs	r3, r0
 8003028:	f401 7000 	and.w	r0, r1, #512	; 0x200
 800302c:	4303      	orrs	r3, r0
 800302e:	69e0      	ldr	r0, [r4, #28]
 8003030:	0c09      	lsrs	r1, r1, #16
 8003032:	f000 0038 	and.w	r0, r0, #56	; 0x38
 8003036:	4303      	orrs	r3, r0
 8003038:	6a20      	ldr	r0, [r4, #32]
 800303a:	f001 0104 	and.w	r1, r1, #4
 800303e:	f000 0080 	and.w	r0, r0, #128	; 0x80
 8003042:	4303      	orrs	r3, r0
 8003044:	6aa0      	ldr	r0, [r4, #40]	; 0x28
 8003046:	f400 5000 	and.w	r0, r0, #8192	; 0x2000
 800304a:	4303      	orrs	r3, r0
 800304c:	6013      	str	r3, [r2, #0]
 800304e:	6051      	str	r1, [r2, #4]
 8003050:	69d3      	ldr	r3, [r2, #28]
 8003052:	2000      	movs	r0, #0
 8003054:	f423 6300 	bic.w	r3, r3, #2048	; 0x800
 8003058:	61d3      	str	r3, [r2, #28]
 800305a:	2301      	movs	r3, #1
 800305c:	6560      	str	r0, [r4, #84]	; 0x54
 800305e:	f884 3051 	strb.w	r3, [r4, #81]	; 0x51
 8003062:	bd10      	pop	{r4, pc}
 8003064:	2300      	movs	r3, #0
 8003066:	e9c0 3304 	strd	r3, r3, [r0, #16]
 800306a:	e7b5      	b.n	8002fd8 <HAL_SPI_Init+0x18>
 800306c:	2001      	movs	r0, #1
 800306e:	e7f8      	b.n	8003062 <HAL_SPI_Init+0xa2>

08003070 <HAL_SPI_Transmit>:
 8003070:	e92d 43f7 	stmdb	sp!, {r0, r1, r2, r4, r5, r6, r7, r8, r9, lr}
 8003074:	461f      	mov	r7, r3
 8003076:	f890 3050 	ldrb.w	r3, [r0, #80]	; 0x50
 800307a:	4604      	mov	r4, r0
 800307c:	2b01      	cmp	r3, #1
 800307e:	460d      	mov	r5, r1
 8003080:	4690      	mov	r8, r2
 8003082:	f000 80a0 	beq.w	80031c6 <HAL_SPI_Transmit+0x156>
 8003086:	2301      	movs	r3, #1
 8003088:	f880 3050 	strb.w	r3, [r0, #80]	; 0x50
 800308c:	f7fe fffa 	bl	8002084 <HAL_GetTick>
 8003090:	f894 3051 	ldrb.w	r3, [r4, #81]	; 0x51
 8003094:	4681      	mov	r9, r0
 8003096:	2b01      	cmp	r3, #1
 8003098:	b2d8      	uxtb	r0, r3
 800309a:	f040 8092 	bne.w	80031c2 <HAL_SPI_Transmit+0x152>
 800309e:	2d00      	cmp	r5, #0
 80030a0:	d061      	beq.n	8003166 <HAL_SPI_Transmit+0xf6>
 80030a2:	f1b8 0f00 	cmp.w	r8, #0
 80030a6:	d05e      	beq.n	8003166 <HAL_SPI_Transmit+0xf6>
 80030a8:	2303      	movs	r3, #3
 80030aa:	f884 3051 	strb.w	r3, [r4, #81]	; 0x51
 80030ae:	2300      	movs	r3, #0
 80030b0:	6563      	str	r3, [r4, #84]	; 0x54
 80030b2:	e9c4 3310 	strd	r3, r3, [r4, #64]	; 0x40
 80030b6:	f8a4 8036 	strh.w	r8, [r4, #54]	; 0x36
 80030ba:	63a3      	str	r3, [r4, #56]	; 0x38
 80030bc:	87a3      	strh	r3, [r4, #60]	; 0x3c
 80030be:	87e3      	strh	r3, [r4, #62]	; 0x3e
 80030c0:	68a3      	ldr	r3, [r4, #8]
 80030c2:	6826      	ldr	r6, [r4, #0]
 80030c4:	f5b3 4f00 	cmp.w	r3, #32768	; 0x8000
 80030c8:	6325      	str	r5, [r4, #48]	; 0x30
 80030ca:	f8a4 8034 	strh.w	r8, [r4, #52]	; 0x34
 80030ce:	d107      	bne.n	80030e0 <HAL_SPI_Transmit+0x70>
 80030d0:	6833      	ldr	r3, [r6, #0]
 80030d2:	f023 0340 	bic.w	r3, r3, #64	; 0x40
 80030d6:	6033      	str	r3, [r6, #0]
 80030d8:	6833      	ldr	r3, [r6, #0]
 80030da:	f443 4380 	orr.w	r3, r3, #16384	; 0x4000
 80030de:	6033      	str	r3, [r6, #0]
 80030e0:	6833      	ldr	r3, [r6, #0]
 80030e2:	68e2      	ldr	r2, [r4, #12]
 80030e4:	065b      	lsls	r3, r3, #25
 80030e6:	bf5e      	ittt	pl
 80030e8:	6833      	ldrpl	r3, [r6, #0]
 80030ea:	f043 0340 	orrpl.w	r3, r3, #64	; 0x40
 80030ee:	6033      	strpl	r3, [r6, #0]
 80030f0:	f5b2 6f00 	cmp.w	r2, #2048	; 0x800
 80030f4:	6863      	ldr	r3, [r4, #4]
 80030f6:	d13f      	bne.n	8003178 <HAL_SPI_Transmit+0x108>
 80030f8:	b113      	cbz	r3, 8003100 <HAL_SPI_Transmit+0x90>
 80030fa:	f1b8 0f01 	cmp.w	r8, #1
 80030fe:	d107      	bne.n	8003110 <HAL_SPI_Transmit+0xa0>
 8003100:	f835 3b02 	ldrh.w	r3, [r5], #2
 8003104:	60f3      	str	r3, [r6, #12]
 8003106:	6325      	str	r5, [r4, #48]	; 0x30
 8003108:	8ee3      	ldrh	r3, [r4, #54]	; 0x36
 800310a:	3b01      	subs	r3, #1
 800310c:	b29b      	uxth	r3, r3
 800310e:	86e3      	strh	r3, [r4, #54]	; 0x36
 8003110:	8ee3      	ldrh	r3, [r4, #54]	; 0x36
 8003112:	b29b      	uxth	r3, r3
 8003114:	b9a3      	cbnz	r3, 8003140 <HAL_SPI_Transmit+0xd0>
 8003116:	464a      	mov	r2, r9
 8003118:	4639      	mov	r1, r7
 800311a:	4620      	mov	r0, r4
 800311c:	f7ff ff42 	bl	8002fa4 <SPI_EndRxTxTransaction>
 8003120:	2800      	cmp	r0, #0
 8003122:	d14b      	bne.n	80031bc <HAL_SPI_Transmit+0x14c>
 8003124:	68a3      	ldr	r3, [r4, #8]
 8003126:	b933      	cbnz	r3, 8003136 <HAL_SPI_Transmit+0xc6>
 8003128:	9301      	str	r3, [sp, #4]
 800312a:	6823      	ldr	r3, [r4, #0]
 800312c:	68da      	ldr	r2, [r3, #12]
 800312e:	9201      	str	r2, [sp, #4]
 8003130:	689b      	ldr	r3, [r3, #8]
 8003132:	9301      	str	r3, [sp, #4]
 8003134:	9b01      	ldr	r3, [sp, #4]
 8003136:	6d60      	ldr	r0, [r4, #84]	; 0x54
 8003138:	3800      	subs	r0, #0
 800313a:	bf18      	it	ne
 800313c:	2001      	movne	r0, #1
 800313e:	e012      	b.n	8003166 <HAL_SPI_Transmit+0xf6>
 8003140:	6822      	ldr	r2, [r4, #0]
 8003142:	6893      	ldr	r3, [r2, #8]
 8003144:	0798      	lsls	r0, r3, #30
 8003146:	d505      	bpl.n	8003154 <HAL_SPI_Transmit+0xe4>
 8003148:	6b23      	ldr	r3, [r4, #48]	; 0x30
 800314a:	f833 1b02 	ldrh.w	r1, [r3], #2
 800314e:	60d1      	str	r1, [r2, #12]
 8003150:	6323      	str	r3, [r4, #48]	; 0x30
 8003152:	e7d9      	b.n	8003108 <HAL_SPI_Transmit+0x98>
 8003154:	f7fe ff96 	bl	8002084 <HAL_GetTick>
 8003158:	eba0 0009 	sub.w	r0, r0, r9
 800315c:	42b8      	cmp	r0, r7
 800315e:	d3d7      	bcc.n	8003110 <HAL_SPI_Transmit+0xa0>
 8003160:	1c79      	adds	r1, r7, #1
 8003162:	d0d5      	beq.n	8003110 <HAL_SPI_Transmit+0xa0>
 8003164:	2003      	movs	r0, #3
 8003166:	2301      	movs	r3, #1
 8003168:	f884 3051 	strb.w	r3, [r4, #81]	; 0x51
 800316c:	2300      	movs	r3, #0
 800316e:	f884 3050 	strb.w	r3, [r4, #80]	; 0x50
 8003172:	b003      	add	sp, #12
 8003174:	e8bd 83f0 	ldmia.w	sp!, {r4, r5, r6, r7, r8, r9, pc}
 8003178:	b113      	cbz	r3, 8003180 <HAL_SPI_Transmit+0x110>
 800317a:	f1b8 0f01 	cmp.w	r8, #1
 800317e:	d108      	bne.n	8003192 <HAL_SPI_Transmit+0x122>
 8003180:	782b      	ldrb	r3, [r5, #0]
 8003182:	7333      	strb	r3, [r6, #12]
 8003184:	6b23      	ldr	r3, [r4, #48]	; 0x30
 8003186:	3301      	adds	r3, #1
 8003188:	6323      	str	r3, [r4, #48]	; 0x30
 800318a:	8ee3      	ldrh	r3, [r4, #54]	; 0x36
 800318c:	3b01      	subs	r3, #1
 800318e:	b29b      	uxth	r3, r3
 8003190:	86e3      	strh	r3, [r4, #54]	; 0x36
 8003192:	8ee3      	ldrh	r3, [r4, #54]	; 0x36
 8003194:	b29b      	uxth	r3, r3
 8003196:	2b00      	cmp	r3, #0
 8003198:	d0bd      	beq.n	8003116 <HAL_SPI_Transmit+0xa6>
 800319a:	6823      	ldr	r3, [r4, #0]
 800319c:	689a      	ldr	r2, [r3, #8]
 800319e:	0792      	lsls	r2, r2, #30
 80031a0:	d503      	bpl.n	80031aa <HAL_SPI_Transmit+0x13a>
 80031a2:	6b22      	ldr	r2, [r4, #48]	; 0x30
 80031a4:	7812      	ldrb	r2, [r2, #0]
 80031a6:	731a      	strb	r2, [r3, #12]
 80031a8:	e7ec      	b.n	8003184 <HAL_SPI_Transmit+0x114>
 80031aa:	f7fe ff6b 	bl	8002084 <HAL_GetTick>
 80031ae:	eba0 0009 	sub.w	r0, r0, r9
 80031b2:	42b8      	cmp	r0, r7
 80031b4:	d3ed      	bcc.n	8003192 <HAL_SPI_Transmit+0x122>
 80031b6:	1c7b      	adds	r3, r7, #1
 80031b8:	d0eb      	beq.n	8003192 <HAL_SPI_Transmit+0x122>
 80031ba:	e7d3      	b.n	8003164 <HAL_SPI_Transmit+0xf4>
 80031bc:	2320      	movs	r3, #32
 80031be:	6563      	str	r3, [r4, #84]	; 0x54
 80031c0:	e7b0      	b.n	8003124 <HAL_SPI_Transmit+0xb4>
 80031c2:	2002      	movs	r0, #2
 80031c4:	e7cf      	b.n	8003166 <HAL_SPI_Transmit+0xf6>
 80031c6:	2002      	movs	r0, #2
 80031c8:	e7d3      	b.n	8003172 <HAL_SPI_Transmit+0x102>
	...

080031cc <TIM_OC1_SetConfig>:
 80031cc:	6a03      	ldr	r3, [r0, #32]
 80031ce:	b570      	push	{r4, r5, r6, lr}
 80031d0:	f023 0301 	bic.w	r3, r3, #1
 80031d4:	6203      	str	r3, [r0, #32]
 80031d6:	6a03      	ldr	r3, [r0, #32]
 80031d8:	6844      	ldr	r4, [r0, #4]
 80031da:	6982      	ldr	r2, [r0, #24]
 80031dc:	680d      	ldr	r5, [r1, #0]
 80031de:	f022 0273 	bic.w	r2, r2, #115	; 0x73
 80031e2:	432a      	orrs	r2, r5
 80031e4:	688d      	ldr	r5, [r1, #8]
 80031e6:	f023 0302 	bic.w	r3, r3, #2
 80031ea:	432b      	orrs	r3, r5
 80031ec:	4d0a      	ldr	r5, [pc, #40]	; (8003218 <TIM_OC1_SetConfig+0x4c>)
 80031ee:	42a8      	cmp	r0, r5
 80031f0:	d10b      	bne.n	800320a <TIM_OC1_SetConfig+0x3e>
 80031f2:	68cd      	ldr	r5, [r1, #12]
 80031f4:	f023 0308 	bic.w	r3, r3, #8
 80031f8:	432b      	orrs	r3, r5
 80031fa:	f424 7440 	bic.w	r4, r4, #768	; 0x300
 80031fe:	e9d1 5605 	ldrd	r5, r6, [r1, #20]
 8003202:	4335      	orrs	r5, r6
 8003204:	f023 0304 	bic.w	r3, r3, #4
 8003208:	432c      	orrs	r4, r5
 800320a:	6044      	str	r4, [r0, #4]
 800320c:	6182      	str	r2, [r0, #24]
 800320e:	684a      	ldr	r2, [r1, #4]
 8003210:	6342      	str	r2, [r0, #52]	; 0x34
 8003212:	6203      	str	r3, [r0, #32]
 8003214:	bd70      	pop	{r4, r5, r6, pc}
 8003216:	bf00      	nop
 8003218:	40012c00 	.word	0x40012c00

0800321c <TIM_OC3_SetConfig>:
 800321c:	6a03      	ldr	r3, [r0, #32]
 800321e:	b570      	push	{r4, r5, r6, lr}
 8003220:	f423 7380 	bic.w	r3, r3, #256	; 0x100
 8003224:	6203      	str	r3, [r0, #32]
 8003226:	6a03      	ldr	r3, [r0, #32]
 8003228:	6844      	ldr	r4, [r0, #4]
 800322a:	69c2      	ldr	r2, [r0, #28]
 800322c:	680d      	ldr	r5, [r1, #0]
 800322e:	f022 0273 	bic.w	r2, r2, #115	; 0x73
 8003232:	432a      	orrs	r2, r5
 8003234:	688d      	ldr	r5, [r1, #8]
 8003236:	f423 7300 	bic.w	r3, r3, #512	; 0x200
 800323a:	ea43 2305 	orr.w	r3, r3, r5, lsl #8
 800323e:	4d0b      	ldr	r5, [pc, #44]	; (800326c <TIM_OC3_SetConfig+0x50>)
 8003240:	42a8      	cmp	r0, r5
 8003242:	d10d      	bne.n	8003260 <TIM_OC3_SetConfig+0x44>
 8003244:	68cd      	ldr	r5, [r1, #12]
 8003246:	f423 6300 	bic.w	r3, r3, #2048	; 0x800
 800324a:	ea43 2305 	orr.w	r3, r3, r5, lsl #8
 800324e:	f424 5440 	bic.w	r4, r4, #12288	; 0x3000
 8003252:	e9d1 5605 	ldrd	r5, r6, [r1, #20]
 8003256:	4335      	orrs	r5, r6
 8003258:	f423 6380 	bic.w	r3, r3, #1024	; 0x400
 800325c:	ea44 1405 	orr.w	r4, r4, r5, lsl #4
 8003260:	6044      	str	r4, [r0, #4]
 8003262:	61c2      	str	r2, [r0, #28]
 8003264:	684a      	ldr	r2, [r1, #4]
 8003266:	63c2      	str	r2, [r0, #60]	; 0x3c
 8003268:	6203      	str	r3, [r0, #32]
 800326a:	bd70      	pop	{r4, r5, r6, pc}
 800326c:	40012c00 	.word	0x40012c00

08003270 <TIM_OC4_SetConfig>:
 8003270:	6a03      	ldr	r3, [r0, #32]
 8003272:	b530      	push	{r4, r5, lr}
 8003274:	f423 5380 	bic.w	r3, r3, #4096	; 0x1000
 8003278:	6203      	str	r3, [r0, #32]
 800327a:	6a03      	ldr	r3, [r0, #32]
 800327c:	6844      	ldr	r4, [r0, #4]
 800327e:	69c2      	ldr	r2, [r0, #28]
 8003280:	680d      	ldr	r5, [r1, #0]
 8003282:	f422 42e6 	bic.w	r2, r2, #29440	; 0x7300
 8003286:	ea42 2205 	orr.w	r2, r2, r5, lsl #8
 800328a:	688d      	ldr	r5, [r1, #8]
 800328c:	f423 5300 	bic.w	r3, r3, #8192	; 0x2000
 8003290:	ea43 3305 	orr.w	r3, r3, r5, lsl #12
 8003294:	4d06      	ldr	r5, [pc, #24]	; (80032b0 <TIM_OC4_SetConfig+0x40>)
 8003296:	42a8      	cmp	r0, r5
 8003298:	bf02      	ittt	eq
 800329a:	694d      	ldreq	r5, [r1, #20]
 800329c:	f424 4480 	biceq.w	r4, r4, #16384	; 0x4000
 80032a0:	ea44 1485 	orreq.w	r4, r4, r5, lsl #6
 80032a4:	6044      	str	r4, [r0, #4]
 80032a6:	61c2      	str	r2, [r0, #28]
 80032a8:	684a      	ldr	r2, [r1, #4]
 80032aa:	6402      	str	r2, [r0, #64]	; 0x40
 80032ac:	6203      	str	r3, [r0, #32]
 80032ae:	bd30      	pop	{r4, r5, pc}
 80032b0:	40012c00 	.word	0x40012c00

080032b4 <HAL_TIM_Encoder_Start>:
 80032b4:	4603      	mov	r3, r0
 80032b6:	b530      	push	{r4, r5, lr}
 80032b8:	f890 203e 	ldrb.w	r2, [r0, #62]	; 0x3e
 80032bc:	f890 003f 	ldrb.w	r0, [r0, #63]	; 0x3f
 80032c0:	f893 5042 	ldrb.w	r5, [r3, #66]	; 0x42
 80032c4:	f893 4043 	ldrb.w	r4, [r3, #67]	; 0x43
 80032c8:	b2d2      	uxtb	r2, r2
 80032ca:	b2c0      	uxtb	r0, r0
 80032cc:	b2ed      	uxtb	r5, r5
 80032ce:	b2e4      	uxtb	r4, r4
 80032d0:	b9c1      	cbnz	r1, 8003304 <HAL_TIM_Encoder_Start+0x50>
 80032d2:	2a01      	cmp	r2, #1
 80032d4:	d145      	bne.n	8003362 <HAL_TIM_Encoder_Start+0xae>
 80032d6:	2d01      	cmp	r5, #1
 80032d8:	d145      	bne.n	8003366 <HAL_TIM_Encoder_Start+0xb2>
 80032da:	2202      	movs	r2, #2
 80032dc:	f883 203e 	strb.w	r2, [r3, #62]	; 0x3e
 80032e0:	f883 2042 	strb.w	r2, [r3, #66]	; 0x42
 80032e4:	681a      	ldr	r2, [r3, #0]
 80032e6:	6a11      	ldr	r1, [r2, #32]
 80032e8:	f021 0101 	bic.w	r1, r1, #1
 80032ec:	6211      	str	r1, [r2, #32]
 80032ee:	6a11      	ldr	r1, [r2, #32]
 80032f0:	f041 0101 	orr.w	r1, r1, #1
 80032f4:	2000      	movs	r0, #0
 80032f6:	6211      	str	r1, [r2, #32]
 80032f8:	681a      	ldr	r2, [r3, #0]
 80032fa:	6813      	ldr	r3, [r2, #0]
 80032fc:	f043 0301 	orr.w	r3, r3, #1
 8003300:	6013      	str	r3, [r2, #0]
 8003302:	bd30      	pop	{r4, r5, pc}
 8003304:	2904      	cmp	r1, #4
 8003306:	d111      	bne.n	800332c <HAL_TIM_Encoder_Start+0x78>
 8003308:	2801      	cmp	r0, #1
 800330a:	d12a      	bne.n	8003362 <HAL_TIM_Encoder_Start+0xae>
 800330c:	2c01      	cmp	r4, #1
 800330e:	d1f8      	bne.n	8003302 <HAL_TIM_Encoder_Start+0x4e>
 8003310:	2202      	movs	r2, #2
 8003312:	f883 203f 	strb.w	r2, [r3, #63]	; 0x3f
 8003316:	f883 2043 	strb.w	r2, [r3, #67]	; 0x43
 800331a:	681a      	ldr	r2, [r3, #0]
 800331c:	6a11      	ldr	r1, [r2, #32]
 800331e:	f021 0110 	bic.w	r1, r1, #16
 8003322:	6211      	str	r1, [r2, #32]
 8003324:	6a11      	ldr	r1, [r2, #32]
 8003326:	f041 0110 	orr.w	r1, r1, #16
 800332a:	e7e3      	b.n	80032f4 <HAL_TIM_Encoder_Start+0x40>
 800332c:	2a01      	cmp	r2, #1
 800332e:	d118      	bne.n	8003362 <HAL_TIM_Encoder_Start+0xae>
 8003330:	2801      	cmp	r0, #1
 8003332:	d118      	bne.n	8003366 <HAL_TIM_Encoder_Start+0xb2>
 8003334:	2d01      	cmp	r5, #1
 8003336:	d1e4      	bne.n	8003302 <HAL_TIM_Encoder_Start+0x4e>
 8003338:	2c01      	cmp	r4, #1
 800333a:	d1e2      	bne.n	8003302 <HAL_TIM_Encoder_Start+0x4e>
 800333c:	2202      	movs	r2, #2
 800333e:	f883 203e 	strb.w	r2, [r3, #62]	; 0x3e
 8003342:	f883 203f 	strb.w	r2, [r3, #63]	; 0x3f
 8003346:	f883 2042 	strb.w	r2, [r3, #66]	; 0x42
 800334a:	f883 2043 	strb.w	r2, [r3, #67]	; 0x43
 800334e:	681a      	ldr	r2, [r3, #0]
 8003350:	6a11      	ldr	r1, [r2, #32]
 8003352:	f021 0101 	bic.w	r1, r1, #1
 8003356:	6211      	str	r1, [r2, #32]
 8003358:	6a11      	ldr	r1, [r2, #32]
 800335a:	f041 0101 	orr.w	r1, r1, #1
 800335e:	6211      	str	r1, [r2, #32]
 8003360:	e7dc      	b.n	800331c <HAL_TIM_Encoder_Start+0x68>
 8003362:	2001      	movs	r0, #1
 8003364:	e7cd      	b.n	8003302 <HAL_TIM_Encoder_Start+0x4e>
 8003366:	4610      	mov	r0, r2
 8003368:	e7cb      	b.n	8003302 <HAL_TIM_Encoder_Start+0x4e>
	...

0800336c <TIM_Base_SetConfig>:
 800336c:	4a1a      	ldr	r2, [pc, #104]	; (80033d8 <TIM_Base_SetConfig+0x6c>)
 800336e:	6803      	ldr	r3, [r0, #0]
 8003370:	4290      	cmp	r0, r2
 8003372:	d00a      	beq.n	800338a <TIM_Base_SetConfig+0x1e>
 8003374:	f1b0 4f80 	cmp.w	r0, #1073741824	; 0x40000000
 8003378:	d007      	beq.n	800338a <TIM_Base_SetConfig+0x1e>
 800337a:	f5a2 3294 	sub.w	r2, r2, #75776	; 0x12800
 800337e:	4290      	cmp	r0, r2
 8003380:	d003      	beq.n	800338a <TIM_Base_SetConfig+0x1e>
 8003382:	f502 6280 	add.w	r2, r2, #1024	; 0x400
 8003386:	4290      	cmp	r0, r2
 8003388:	d115      	bne.n	80033b6 <TIM_Base_SetConfig+0x4a>
 800338a:	684a      	ldr	r2, [r1, #4]
 800338c:	f023 0370 	bic.w	r3, r3, #112	; 0x70
 8003390:	4313      	orrs	r3, r2
 8003392:	4a11      	ldr	r2, [pc, #68]	; (80033d8 <TIM_Base_SetConfig+0x6c>)
 8003394:	4290      	cmp	r0, r2
 8003396:	d00a      	beq.n	80033ae <TIM_Base_SetConfig+0x42>
 8003398:	f1b0 4f80 	cmp.w	r0, #1073741824	; 0x40000000
 800339c:	d007      	beq.n	80033ae <TIM_Base_SetConfig+0x42>
 800339e:	f5a2 3294 	sub.w	r2, r2, #75776	; 0x12800
 80033a2:	4290      	cmp	r0, r2
 80033a4:	d003      	beq.n	80033ae <TIM_Base_SetConfig+0x42>
 80033a6:	f502 6280 	add.w	r2, r2, #1024	; 0x400
 80033aa:	4290      	cmp	r0, r2
 80033ac:	d103      	bne.n	80033b6 <TIM_Base_SetConfig+0x4a>
 80033ae:	68ca      	ldr	r2, [r1, #12]
 80033b0:	f423 7340 	bic.w	r3, r3, #768	; 0x300
 80033b4:	4313      	orrs	r3, r2
 80033b6:	694a      	ldr	r2, [r1, #20]
 80033b8:	f023 0380 	bic.w	r3, r3, #128	; 0x80
 80033bc:	4313      	orrs	r3, r2
 80033be:	6003      	str	r3, [r0, #0]
 80033c0:	688b      	ldr	r3, [r1, #8]
 80033c2:	62c3      	str	r3, [r0, #44]	; 0x2c
 80033c4:	680b      	ldr	r3, [r1, #0]
 80033c6:	6283      	str	r3, [r0, #40]	; 0x28
 80033c8:	4b03      	ldr	r3, [pc, #12]	; (80033d8 <TIM_Base_SetConfig+0x6c>)
 80033ca:	4298      	cmp	r0, r3
 80033cc:	bf04      	itt	eq
 80033ce:	690b      	ldreq	r3, [r1, #16]
 80033d0:	6303      	streq	r3, [r0, #48]	; 0x30
 80033d2:	2301      	movs	r3, #1
 80033d4:	6143      	str	r3, [r0, #20]
 80033d6:	4770      	bx	lr
 80033d8:	40012c00 	.word	0x40012c00

080033dc <HAL_TIM_PWM_Init>:
 80033dc:	b510      	push	{r4, lr}
 80033de:	4604      	mov	r4, r0
 80033e0:	b330      	cbz	r0, 8003430 <HAL_TIM_PWM_Init+0x54>
 80033e2:	f890 303d 	ldrb.w	r3, [r0, #61]	; 0x3d
 80033e6:	f003 02ff 	and.w	r2, r3, #255	; 0xff
 80033ea:	b91b      	cbnz	r3, 80033f4 <HAL_TIM_PWM_Init+0x18>
 80033ec:	f880 203c 	strb.w	r2, [r0, #60]	; 0x3c
 80033f0:	f7fe fd7a 	bl	8001ee8 <HAL_TIM_PWM_MspInit>
 80033f4:	2302      	movs	r3, #2
 80033f6:	6820      	ldr	r0, [r4, #0]
 80033f8:	f884 303d 	strb.w	r3, [r4, #61]	; 0x3d
 80033fc:	1d21      	adds	r1, r4, #4
 80033fe:	f7ff ffb5 	bl	800336c <TIM_Base_SetConfig>
 8003402:	2301      	movs	r3, #1
 8003404:	2000      	movs	r0, #0
 8003406:	f884 3046 	strb.w	r3, [r4, #70]	; 0x46
 800340a:	f884 303e 	strb.w	r3, [r4, #62]	; 0x3e
 800340e:	f884 303f 	strb.w	r3, [r4, #63]	; 0x3f
 8003412:	f884 3040 	strb.w	r3, [r4, #64]	; 0x40
 8003416:	f884 3041 	strb.w	r3, [r4, #65]	; 0x41
 800341a:	f884 3042 	strb.w	r3, [r4, #66]	; 0x42
 800341e:	f884 3043 	strb.w	r3, [r4, #67]	; 0x43
 8003422:	f884 3044 	strb.w	r3, [r4, #68]	; 0x44
 8003426:	f884 3045 	strb.w	r3, [r4, #69]	; 0x45
 800342a:	f884 303d 	strb.w	r3, [r4, #61]	; 0x3d
 800342e:	bd10      	pop	{r4, pc}
 8003430:	2001      	movs	r0, #1
 8003432:	e7fc      	b.n	800342e <HAL_TIM_PWM_Init+0x52>

08003434 <HAL_TIM_Encoder_Init>:
 8003434:	b5f8      	push	{r3, r4, r5, r6, r7, lr}
 8003436:	460d      	mov	r5, r1
 8003438:	4604      	mov	r4, r0
 800343a:	2800      	cmp	r0, #0
 800343c:	d04d      	beq.n	80034da <HAL_TIM_Encoder_Init+0xa6>
 800343e:	f890 303d 	ldrb.w	r3, [r0, #61]	; 0x3d
 8003442:	f003 02ff 	and.w	r2, r3, #255	; 0xff
 8003446:	b91b      	cbnz	r3, 8003450 <HAL_TIM_Encoder_Init+0x1c>
 8003448:	f880 203c 	strb.w	r2, [r0, #60]	; 0x3c
 800344c:	f7fe fcfe 	bl	8001e4c <HAL_TIM_Encoder_MspInit>
 8003450:	2302      	movs	r3, #2
 8003452:	4621      	mov	r1, r4
 8003454:	f884 303d 	strb.w	r3, [r4, #61]	; 0x3d
 8003458:	f851 0b04 	ldr.w	r0, [r1], #4
 800345c:	6883      	ldr	r3, [r0, #8]
 800345e:	f423 4380 	bic.w	r3, r3, #16384	; 0x4000
 8003462:	f023 0307 	bic.w	r3, r3, #7
 8003466:	6083      	str	r3, [r0, #8]
 8003468:	f7ff ff80 	bl	800336c <TIM_Base_SetConfig>
 800346c:	6820      	ldr	r0, [r4, #0]
 800346e:	682b      	ldr	r3, [r5, #0]
 8003470:	6886      	ldr	r6, [r0, #8]
 8003472:	6982      	ldr	r2, [r0, #24]
 8003474:	68a9      	ldr	r1, [r5, #8]
 8003476:	431e      	orrs	r6, r3
 8003478:	69ab      	ldr	r3, [r5, #24]
 800347a:	f422 7240 	bic.w	r2, r2, #768	; 0x300
 800347e:	f022 0203 	bic.w	r2, r2, #3
 8003482:	ea41 2303 	orr.w	r3, r1, r3, lsl #8
 8003486:	4313      	orrs	r3, r2
 8003488:	f423 427c 	bic.w	r2, r3, #64512	; 0xfc00
 800348c:	692b      	ldr	r3, [r5, #16]
 800348e:	69e9      	ldr	r1, [r5, #28]
 8003490:	011b      	lsls	r3, r3, #4
 8003492:	ea43 2301 	orr.w	r3, r3, r1, lsl #8
 8003496:	68e9      	ldr	r1, [r5, #12]
 8003498:	6a07      	ldr	r7, [r0, #32]
 800349a:	430b      	orrs	r3, r1
 800349c:	6a29      	ldr	r1, [r5, #32]
 800349e:	f022 02fc 	bic.w	r2, r2, #252	; 0xfc
 80034a2:	ea43 3301 	orr.w	r3, r3, r1, lsl #12
 80034a6:	4313      	orrs	r3, r2
 80034a8:	6969      	ldr	r1, [r5, #20]
 80034aa:	f027 0222 	bic.w	r2, r7, #34	; 0x22
 80034ae:	686f      	ldr	r7, [r5, #4]
 80034b0:	6086      	str	r6, [r0, #8]
 80034b2:	ea47 1701 	orr.w	r7, r7, r1, lsl #4
 80034b6:	6183      	str	r3, [r0, #24]
 80034b8:	4317      	orrs	r7, r2
 80034ba:	2301      	movs	r3, #1
 80034bc:	6207      	str	r7, [r0, #32]
 80034be:	2000      	movs	r0, #0
 80034c0:	f884 3046 	strb.w	r3, [r4, #70]	; 0x46
 80034c4:	f884 303e 	strb.w	r3, [r4, #62]	; 0x3e
 80034c8:	f884 303f 	strb.w	r3, [r4, #63]	; 0x3f
 80034cc:	f884 3042 	strb.w	r3, [r4, #66]	; 0x42
 80034d0:	f884 3043 	strb.w	r3, [r4, #67]	; 0x43
 80034d4:	f884 303d 	strb.w	r3, [r4, #61]	; 0x3d
 80034d8:	bdf8      	pop	{r3, r4, r5, r6, r7, pc}
 80034da:	2001      	movs	r0, #1
 80034dc:	e7fc      	b.n	80034d8 <HAL_TIM_Encoder_Init+0xa4>
	...

080034e0 <TIM_OC2_SetConfig>:
 80034e0:	6a03      	ldr	r3, [r0, #32]
 80034e2:	b570      	push	{r4, r5, r6, lr}
 80034e4:	f023 0310 	bic.w	r3, r3, #16
 80034e8:	6203      	str	r3, [r0, #32]
 80034ea:	6a03      	ldr	r3, [r0, #32]
 80034ec:	6844      	ldr	r4, [r0, #4]
 80034ee:	6982      	ldr	r2, [r0, #24]
 80034f0:	680d      	ldr	r5, [r1, #0]
 80034f2:	f422 42e6 	bic.w	r2, r2, #29440	; 0x7300
 80034f6:	ea42 2205 	orr.w	r2, r2, r5, lsl #8
 80034fa:	688d      	ldr	r5, [r1, #8]
 80034fc:	f023 0320 	bic.w	r3, r3, #32
 8003500:	ea43 1305 	orr.w	r3, r3, r5, lsl #4
 8003504:	4d0b      	ldr	r5, [pc, #44]	; (8003534 <TIM_OC2_SetConfig+0x54>)
 8003506:	42a8      	cmp	r0, r5
 8003508:	d10d      	bne.n	8003526 <TIM_OC2_SetConfig+0x46>
 800350a:	68cd      	ldr	r5, [r1, #12]
 800350c:	f023 0380 	bic.w	r3, r3, #128	; 0x80
 8003510:	ea43 1305 	orr.w	r3, r3, r5, lsl #4
 8003514:	f424 6440 	bic.w	r4, r4, #3072	; 0xc00
 8003518:	e9d1 5605 	ldrd	r5, r6, [r1, #20]
 800351c:	4335      	orrs	r5, r6
 800351e:	f023 0340 	bic.w	r3, r3, #64	; 0x40
 8003522:	ea44 0485 	orr.w	r4, r4, r5, lsl #2
 8003526:	6044      	str	r4, [r0, #4]
 8003528:	6182      	str	r2, [r0, #24]
 800352a:	684a      	ldr	r2, [r1, #4]
 800352c:	6382      	str	r2, [r0, #56]	; 0x38
 800352e:	6203      	str	r3, [r0, #32]
 8003530:	bd70      	pop	{r4, r5, r6, pc}
 8003532:	bf00      	nop
 8003534:	40012c00 	.word	0x40012c00

08003538 <HAL_TIM_PWM_ConfigChannel>:
 8003538:	b538      	push	{r3, r4, r5, lr}
 800353a:	f890 303c 	ldrb.w	r3, [r0, #60]	; 0x3c
 800353e:	4604      	mov	r4, r0
 8003540:	2b01      	cmp	r3, #1
 8003542:	d052      	beq.n	80035ea <HAL_TIM_PWM_ConfigChannel+0xb2>
 8003544:	2301      	movs	r3, #1
 8003546:	2a08      	cmp	r2, #8
 8003548:	f880 303c 	strb.w	r3, [r0, #60]	; 0x3c
 800354c:	d03c      	beq.n	80035c8 <HAL_TIM_PWM_ConfigChannel+0x90>
 800354e:	d806      	bhi.n	800355e <HAL_TIM_PWM_ConfigChannel+0x26>
 8003550:	b1c2      	cbz	r2, 8003584 <HAL_TIM_PWM_ConfigChannel+0x4c>
 8003552:	2a04      	cmp	r2, #4
 8003554:	d027      	beq.n	80035a6 <HAL_TIM_PWM_ConfigChannel+0x6e>
 8003556:	2000      	movs	r0, #0
 8003558:	f884 003c 	strb.w	r0, [r4, #60]	; 0x3c
 800355c:	bd38      	pop	{r3, r4, r5, pc}
 800355e:	2a0c      	cmp	r2, #12
 8003560:	d1f9      	bne.n	8003556 <HAL_TIM_PWM_ConfigChannel+0x1e>
 8003562:	6800      	ldr	r0, [r0, #0]
 8003564:	f7ff fe84 	bl	8003270 <TIM_OC4_SetConfig>
 8003568:	6823      	ldr	r3, [r4, #0]
 800356a:	6909      	ldr	r1, [r1, #16]
 800356c:	69da      	ldr	r2, [r3, #28]
 800356e:	f442 6200 	orr.w	r2, r2, #2048	; 0x800
 8003572:	61da      	str	r2, [r3, #28]
 8003574:	69da      	ldr	r2, [r3, #28]
 8003576:	f422 6280 	bic.w	r2, r2, #1024	; 0x400
 800357a:	61da      	str	r2, [r3, #28]
 800357c:	69da      	ldr	r2, [r3, #28]
 800357e:	ea42 2201 	orr.w	r2, r2, r1, lsl #8
 8003582:	e030      	b.n	80035e6 <HAL_TIM_PWM_ConfigChannel+0xae>
 8003584:	6800      	ldr	r0, [r0, #0]
 8003586:	f7ff fe21 	bl	80031cc <TIM_OC1_SetConfig>
 800358a:	6823      	ldr	r3, [r4, #0]
 800358c:	6909      	ldr	r1, [r1, #16]
 800358e:	699a      	ldr	r2, [r3, #24]
 8003590:	f042 0208 	orr.w	r2, r2, #8
 8003594:	619a      	str	r2, [r3, #24]
 8003596:	699a      	ldr	r2, [r3, #24]
 8003598:	f022 0204 	bic.w	r2, r2, #4
 800359c:	619a      	str	r2, [r3, #24]
 800359e:	699a      	ldr	r2, [r3, #24]
 80035a0:	430a      	orrs	r2, r1
 80035a2:	619a      	str	r2, [r3, #24]
 80035a4:	e7d7      	b.n	8003556 <HAL_TIM_PWM_ConfigChannel+0x1e>
 80035a6:	6800      	ldr	r0, [r0, #0]
 80035a8:	f7ff ff9a 	bl	80034e0 <TIM_OC2_SetConfig>
 80035ac:	6823      	ldr	r3, [r4, #0]
 80035ae:	6909      	ldr	r1, [r1, #16]
 80035b0:	699a      	ldr	r2, [r3, #24]
 80035b2:	f442 6200 	orr.w	r2, r2, #2048	; 0x800
 80035b6:	619a      	str	r2, [r3, #24]
 80035b8:	699a      	ldr	r2, [r3, #24]
 80035ba:	f422 6280 	bic.w	r2, r2, #1024	; 0x400
 80035be:	619a      	str	r2, [r3, #24]
 80035c0:	699a      	ldr	r2, [r3, #24]
 80035c2:	ea42 2201 	orr.w	r2, r2, r1, lsl #8
 80035c6:	e7ec      	b.n	80035a2 <HAL_TIM_PWM_ConfigChannel+0x6a>
 80035c8:	6800      	ldr	r0, [r0, #0]
 80035ca:	f7ff fe27 	bl	800321c <TIM_OC3_SetConfig>
 80035ce:	6823      	ldr	r3, [r4, #0]
 80035d0:	6909      	ldr	r1, [r1, #16]
 80035d2:	69da      	ldr	r2, [r3, #28]
 80035d4:	f042 0208 	orr.w	r2, r2, #8
 80035d8:	61da      	str	r2, [r3, #28]
 80035da:	69da      	ldr	r2, [r3, #28]
 80035dc:	f022 0204 	bic.w	r2, r2, #4
 80035e0:	61da      	str	r2, [r3, #28]
 80035e2:	69da      	ldr	r2, [r3, #28]
 80035e4:	430a      	orrs	r2, r1
 80035e6:	61da      	str	r2, [r3, #28]
 80035e8:	e7b5      	b.n	8003556 <HAL_TIM_PWM_ConfigChannel+0x1e>
 80035ea:	2002      	movs	r0, #2
 80035ec:	e7b6      	b.n	800355c <HAL_TIM_PWM_ConfigChannel+0x24>

080035ee <TIM_CCxChannelCmd>:
 80035ee:	b510      	push	{r4, lr}
 80035f0:	2401      	movs	r4, #1
 80035f2:	6a03      	ldr	r3, [r0, #32]
 80035f4:	f001 011f 	and.w	r1, r1, #31
 80035f8:	408c      	lsls	r4, r1
 80035fa:	ea23 0304 	bic.w	r3, r3, r4
 80035fe:	6203      	str	r3, [r0, #32]
 8003600:	6a03      	ldr	r3, [r0, #32]
 8003602:	408a      	lsls	r2, r1
 8003604:	431a      	orrs	r2, r3
 8003606:	6202      	str	r2, [r0, #32]
 8003608:	bd10      	pop	{r4, pc}
	...

0800360c <HAL_TIM_OC_Start_IT>:
 800360c:	b510      	push	{r4, lr}
 800360e:	4604      	mov	r4, r0
 8003610:	b929      	cbnz	r1, 800361e <HAL_TIM_OC_Start_IT+0x12>
 8003612:	f890 303e 	ldrb.w	r3, [r0, #62]	; 0x3e
 8003616:	2b01      	cmp	r3, #1
 8003618:	d02b      	beq.n	8003672 <HAL_TIM_OC_Start_IT+0x66>
 800361a:	2001      	movs	r0, #1
 800361c:	bd10      	pop	{r4, pc}
 800361e:	2904      	cmp	r1, #4
 8003620:	d10b      	bne.n	800363a <HAL_TIM_OC_Start_IT+0x2e>
 8003622:	f890 303f 	ldrb.w	r3, [r0, #63]	; 0x3f
 8003626:	2b01      	cmp	r3, #1
 8003628:	d1f7      	bne.n	800361a <HAL_TIM_OC_Start_IT+0xe>
 800362a:	2302      	movs	r3, #2
 800362c:	6802      	ldr	r2, [r0, #0]
 800362e:	f880 303f 	strb.w	r3, [r0, #63]	; 0x3f
 8003632:	68d3      	ldr	r3, [r2, #12]
 8003634:	f043 0304 	orr.w	r3, r3, #4
 8003638:	e022      	b.n	8003680 <HAL_TIM_OC_Start_IT+0x74>
 800363a:	2908      	cmp	r1, #8
 800363c:	d10b      	bne.n	8003656 <HAL_TIM_OC_Start_IT+0x4a>
 800363e:	f890 3040 	ldrb.w	r3, [r0, #64]	; 0x40
 8003642:	2b01      	cmp	r3, #1
 8003644:	d1e9      	bne.n	800361a <HAL_TIM_OC_Start_IT+0xe>
 8003646:	2302      	movs	r3, #2
 8003648:	6802      	ldr	r2, [r0, #0]
 800364a:	f880 3040 	strb.w	r3, [r0, #64]	; 0x40
 800364e:	68d3      	ldr	r3, [r2, #12]
 8003650:	f043 0308 	orr.w	r3, r3, #8
 8003654:	e014      	b.n	8003680 <HAL_TIM_OC_Start_IT+0x74>
 8003656:	f890 3041 	ldrb.w	r3, [r0, #65]	; 0x41
 800365a:	2b01      	cmp	r3, #1
 800365c:	d1dd      	bne.n	800361a <HAL_TIM_OC_Start_IT+0xe>
 800365e:	2302      	movs	r3, #2
 8003660:	290c      	cmp	r1, #12
 8003662:	f880 3041 	strb.w	r3, [r0, #65]	; 0x41
 8003666:	d10c      	bne.n	8003682 <HAL_TIM_OC_Start_IT+0x76>
 8003668:	6802      	ldr	r2, [r0, #0]
 800366a:	68d3      	ldr	r3, [r2, #12]
 800366c:	f043 0310 	orr.w	r3, r3, #16
 8003670:	e006      	b.n	8003680 <HAL_TIM_OC_Start_IT+0x74>
 8003672:	2302      	movs	r3, #2
 8003674:	6802      	ldr	r2, [r0, #0]
 8003676:	f880 303e 	strb.w	r3, [r0, #62]	; 0x3e
 800367a:	68d3      	ldr	r3, [r2, #12]
 800367c:	f043 0302 	orr.w	r3, r3, #2
 8003680:	60d3      	str	r3, [r2, #12]
 8003682:	2201      	movs	r2, #1
 8003684:	6820      	ldr	r0, [r4, #0]
 8003686:	f7ff ffb2 	bl	80035ee <TIM_CCxChannelCmd>
 800368a:	6823      	ldr	r3, [r4, #0]
 800368c:	4a0e      	ldr	r2, [pc, #56]	; (80036c8 <HAL_TIM_OC_Start_IT+0xbc>)
 800368e:	4293      	cmp	r3, r2
 8003690:	d10a      	bne.n	80036a8 <HAL_TIM_OC_Start_IT+0x9c>
 8003692:	6c5a      	ldr	r2, [r3, #68]	; 0x44
 8003694:	f442 4200 	orr.w	r2, r2, #32768	; 0x8000
 8003698:	645a      	str	r2, [r3, #68]	; 0x44
 800369a:	689a      	ldr	r2, [r3, #8]
 800369c:	f002 0207 	and.w	r2, r2, #7
 80036a0:	2a06      	cmp	r2, #6
 80036a2:	d10b      	bne.n	80036bc <HAL_TIM_OC_Start_IT+0xb0>
 80036a4:	2000      	movs	r0, #0
 80036a6:	e7b9      	b.n	800361c <HAL_TIM_OC_Start_IT+0x10>
 80036a8:	f1b3 4f80 	cmp.w	r3, #1073741824	; 0x40000000
 80036ac:	d0f5      	beq.n	800369a <HAL_TIM_OC_Start_IT+0x8e>
 80036ae:	4a07      	ldr	r2, [pc, #28]	; (80036cc <HAL_TIM_OC_Start_IT+0xc0>)
 80036b0:	4293      	cmp	r3, r2
 80036b2:	d0f2      	beq.n	800369a <HAL_TIM_OC_Start_IT+0x8e>
 80036b4:	f502 6280 	add.w	r2, r2, #1024	; 0x400
 80036b8:	4293      	cmp	r3, r2
 80036ba:	d0ee      	beq.n	800369a <HAL_TIM_OC_Start_IT+0x8e>
 80036bc:	681a      	ldr	r2, [r3, #0]
 80036be:	f042 0201 	orr.w	r2, r2, #1
 80036c2:	601a      	str	r2, [r3, #0]
 80036c4:	e7ee      	b.n	80036a4 <HAL_TIM_OC_Start_IT+0x98>
 80036c6:	bf00      	nop
 80036c8:	40012c00 	.word	0x40012c00
 80036cc:	40000400 	.word	0x40000400

080036d0 <HAL_TIM_PWM_Start_IT>:
 80036d0:	f7ff bf9c 	b.w	800360c <HAL_TIM_OC_Start_IT>

080036d4 <HAL_TIMEx_MasterConfigSynchronization>:
 80036d4:	b530      	push	{r4, r5, lr}
 80036d6:	f890 303c 	ldrb.w	r3, [r0, #60]	; 0x3c
 80036da:	4602      	mov	r2, r0
 80036dc:	2b01      	cmp	r3, #1
 80036de:	f04f 0002 	mov.w	r0, #2
 80036e2:	d022      	beq.n	800372a <HAL_TIMEx_MasterConfigSynchronization+0x56>
 80036e4:	6813      	ldr	r3, [r2, #0]
 80036e6:	f882 003d 	strb.w	r0, [r2, #61]	; 0x3d
 80036ea:	685c      	ldr	r4, [r3, #4]
 80036ec:	680d      	ldr	r5, [r1, #0]
 80036ee:	f024 0470 	bic.w	r4, r4, #112	; 0x70
 80036f2:	432c      	orrs	r4, r5
 80036f4:	6898      	ldr	r0, [r3, #8]
 80036f6:	605c      	str	r4, [r3, #4]
 80036f8:	4c0c      	ldr	r4, [pc, #48]	; (800372c <HAL_TIMEx_MasterConfigSynchronization+0x58>)
 80036fa:	42a3      	cmp	r3, r4
 80036fc:	d00a      	beq.n	8003714 <HAL_TIMEx_MasterConfigSynchronization+0x40>
 80036fe:	f1b3 4f80 	cmp.w	r3, #1073741824	; 0x40000000
 8003702:	d007      	beq.n	8003714 <HAL_TIMEx_MasterConfigSynchronization+0x40>
 8003704:	f5a4 3494 	sub.w	r4, r4, #75776	; 0x12800
 8003708:	42a3      	cmp	r3, r4
 800370a:	d003      	beq.n	8003714 <HAL_TIMEx_MasterConfigSynchronization+0x40>
 800370c:	f504 6480 	add.w	r4, r4, #1024	; 0x400
 8003710:	42a3      	cmp	r3, r4
 8003712:	d104      	bne.n	800371e <HAL_TIMEx_MasterConfigSynchronization+0x4a>
 8003714:	6849      	ldr	r1, [r1, #4]
 8003716:	f020 0080 	bic.w	r0, r0, #128	; 0x80
 800371a:	4301      	orrs	r1, r0
 800371c:	6099      	str	r1, [r3, #8]
 800371e:	2301      	movs	r3, #1
 8003720:	2000      	movs	r0, #0
 8003722:	f882 303d 	strb.w	r3, [r2, #61]	; 0x3d
 8003726:	f882 003c 	strb.w	r0, [r2, #60]	; 0x3c
 800372a:	bd30      	pop	{r4, r5, pc}
 800372c:	40012c00 	.word	0x40012c00

08003730 <__errno>:
 8003730:	4b01      	ldr	r3, [pc, #4]	; (8003738 <__errno+0x8>)
 8003732:	6818      	ldr	r0, [r3, #0]
 8003734:	4770      	bx	lr
 8003736:	bf00      	nop
 8003738:	20000040 	.word	0x20000040

0800373c <__libc_init_array>:
 800373c:	b570      	push	{r4, r5, r6, lr}
 800373e:	2600      	movs	r6, #0
 8003740:	4d0c      	ldr	r5, [pc, #48]	; (8003774 <__libc_init_array+0x38>)
 8003742:	4c0d      	ldr	r4, [pc, #52]	; (8003778 <__libc_init_array+0x3c>)
 8003744:	1b64      	subs	r4, r4, r5
 8003746:	10a4      	asrs	r4, r4, #2
 8003748:	42a6      	cmp	r6, r4
 800374a:	d109      	bne.n	8003760 <__libc_init_array+0x24>
 800374c:	f000 fc90 	bl	8004070 <_init>
 8003750:	2600      	movs	r6, #0
 8003752:	4d0a      	ldr	r5, [pc, #40]	; (800377c <__libc_init_array+0x40>)
 8003754:	4c0a      	ldr	r4, [pc, #40]	; (8003780 <__libc_init_array+0x44>)
 8003756:	1b64      	subs	r4, r4, r5
 8003758:	10a4      	asrs	r4, r4, #2
 800375a:	42a6      	cmp	r6, r4
 800375c:	d105      	bne.n	800376a <__libc_init_array+0x2e>
 800375e:	bd70      	pop	{r4, r5, r6, pc}
 8003760:	f855 3b04 	ldr.w	r3, [r5], #4
 8003764:	4798      	blx	r3
 8003766:	3601      	adds	r6, #1
 8003768:	e7ee      	b.n	8003748 <__libc_init_array+0xc>
 800376a:	f855 3b04 	ldr.w	r3, [r5], #4
 800376e:	4798      	blx	r3
 8003770:	3601      	adds	r6, #1
 8003772:	e7f2      	b.n	800375a <__libc_init_array+0x1e>
 8003774:	08005484 	.word	0x08005484
 8003778:	08005484 	.word	0x08005484
 800377c:	08005484 	.word	0x08005484
 8003780:	08005488 	.word	0x08005488

08003784 <memset>:
 8003784:	4603      	mov	r3, r0
 8003786:	4402      	add	r2, r0
 8003788:	4293      	cmp	r3, r2
 800378a:	d100      	bne.n	800378e <memset+0xa>
 800378c:	4770      	bx	lr
 800378e:	f803 1b01 	strb.w	r1, [r3], #1
 8003792:	e7f9      	b.n	8003788 <memset+0x4>

08003794 <sniprintf>:
 8003794:	b40c      	push	{r2, r3}
 8003796:	b530      	push	{r4, r5, lr}
 8003798:	4b17      	ldr	r3, [pc, #92]	; (80037f8 <sniprintf+0x64>)
 800379a:	1e0c      	subs	r4, r1, #0
 800379c:	681d      	ldr	r5, [r3, #0]
 800379e:	b09d      	sub	sp, #116	; 0x74
 80037a0:	da08      	bge.n	80037b4 <sniprintf+0x20>
 80037a2:	238b      	movs	r3, #139	; 0x8b
 80037a4:	f04f 30ff 	mov.w	r0, #4294967295
 80037a8:	602b      	str	r3, [r5, #0]
 80037aa:	b01d      	add	sp, #116	; 0x74
 80037ac:	e8bd 4030 	ldmia.w	sp!, {r4, r5, lr}
 80037b0:	b002      	add	sp, #8
 80037b2:	4770      	bx	lr
 80037b4:	f44f 7302 	mov.w	r3, #520	; 0x208
 80037b8:	f8ad 3014 	strh.w	r3, [sp, #20]
 80037bc:	bf0c      	ite	eq
 80037be:	4623      	moveq	r3, r4
 80037c0:	f104 33ff 	addne.w	r3, r4, #4294967295
 80037c4:	9304      	str	r3, [sp, #16]
 80037c6:	9307      	str	r3, [sp, #28]
 80037c8:	f64f 73ff 	movw	r3, #65535	; 0xffff
 80037cc:	9002      	str	r0, [sp, #8]
 80037ce:	9006      	str	r0, [sp, #24]
 80037d0:	f8ad 3016 	strh.w	r3, [sp, #22]
 80037d4:	4628      	mov	r0, r5
 80037d6:	ab21      	add	r3, sp, #132	; 0x84
 80037d8:	9a20      	ldr	r2, [sp, #128]	; 0x80
 80037da:	a902      	add	r1, sp, #8
 80037dc:	9301      	str	r3, [sp, #4]
 80037de:	f000 f889 	bl	80038f4 <_svfiprintf_r>
 80037e2:	1c43      	adds	r3, r0, #1
 80037e4:	bfbc      	itt	lt
 80037e6:	238b      	movlt	r3, #139	; 0x8b
 80037e8:	602b      	strlt	r3, [r5, #0]
 80037ea:	2c00      	cmp	r4, #0
 80037ec:	d0dd      	beq.n	80037aa <sniprintf+0x16>
 80037ee:	2200      	movs	r2, #0
 80037f0:	9b02      	ldr	r3, [sp, #8]
 80037f2:	701a      	strb	r2, [r3, #0]
 80037f4:	e7d9      	b.n	80037aa <sniprintf+0x16>
 80037f6:	bf00      	nop
 80037f8:	20000040 	.word	0x20000040

080037fc <siprintf>:
 80037fc:	b40e      	push	{r1, r2, r3}
 80037fe:	f06f 4100 	mvn.w	r1, #2147483648	; 0x80000000
 8003802:	b500      	push	{lr}
 8003804:	b09c      	sub	sp, #112	; 0x70
 8003806:	ab1d      	add	r3, sp, #116	; 0x74
 8003808:	9002      	str	r0, [sp, #8]
 800380a:	9006      	str	r0, [sp, #24]
 800380c:	9107      	str	r1, [sp, #28]
 800380e:	9104      	str	r1, [sp, #16]
 8003810:	4808      	ldr	r0, [pc, #32]	; (8003834 <siprintf+0x38>)
 8003812:	4909      	ldr	r1, [pc, #36]	; (8003838 <siprintf+0x3c>)
 8003814:	f853 2b04 	ldr.w	r2, [r3], #4
 8003818:	9105      	str	r1, [sp, #20]
 800381a:	6800      	ldr	r0, [r0, #0]
 800381c:	a902      	add	r1, sp, #8
 800381e:	9301      	str	r3, [sp, #4]
 8003820:	f000 f868 	bl	80038f4 <_svfiprintf_r>
 8003824:	2200      	movs	r2, #0
 8003826:	9b02      	ldr	r3, [sp, #8]
 8003828:	701a      	strb	r2, [r3, #0]
 800382a:	b01c      	add	sp, #112	; 0x70
 800382c:	f85d eb04 	ldr.w	lr, [sp], #4
 8003830:	b003      	add	sp, #12
 8003832:	4770      	bx	lr
 8003834:	20000040 	.word	0x20000040
 8003838:	ffff0208 	.word	0xffff0208

0800383c <__ssputs_r>:
 800383c:	e92d 47f0 	stmdb	sp!, {r4, r5, r6, r7, r8, r9, sl, lr}
 8003840:	688e      	ldr	r6, [r1, #8]
 8003842:	4682      	mov	sl, r0
 8003844:	429e      	cmp	r6, r3
 8003846:	460c      	mov	r4, r1
 8003848:	4690      	mov	r8, r2
 800384a:	461f      	mov	r7, r3
 800384c:	d838      	bhi.n	80038c0 <__ssputs_r+0x84>
 800384e:	898a      	ldrh	r2, [r1, #12]
 8003850:	f412 6f90 	tst.w	r2, #1152	; 0x480
 8003854:	d032      	beq.n	80038bc <__ssputs_r+0x80>
 8003856:	6825      	ldr	r5, [r4, #0]
 8003858:	6909      	ldr	r1, [r1, #16]
 800385a:	3301      	adds	r3, #1
 800385c:	eba5 0901 	sub.w	r9, r5, r1
 8003860:	6965      	ldr	r5, [r4, #20]
 8003862:	444b      	add	r3, r9
 8003864:	eb05 0545 	add.w	r5, r5, r5, lsl #1
 8003868:	eb05 75d5 	add.w	r5, r5, r5, lsr #31
 800386c:	106d      	asrs	r5, r5, #1
 800386e:	429d      	cmp	r5, r3
 8003870:	bf38      	it	cc
 8003872:	461d      	movcc	r5, r3
 8003874:	0553      	lsls	r3, r2, #21
 8003876:	d531      	bpl.n	80038dc <__ssputs_r+0xa0>
 8003878:	4629      	mov	r1, r5
 800387a:	f000 fb53 	bl	8003f24 <_malloc_r>
 800387e:	4606      	mov	r6, r0
 8003880:	b950      	cbnz	r0, 8003898 <__ssputs_r+0x5c>
 8003882:	230c      	movs	r3, #12
 8003884:	f04f 30ff 	mov.w	r0, #4294967295
 8003888:	f8ca 3000 	str.w	r3, [sl]
 800388c:	89a3      	ldrh	r3, [r4, #12]
 800388e:	f043 0340 	orr.w	r3, r3, #64	; 0x40
 8003892:	81a3      	strh	r3, [r4, #12]
 8003894:	e8bd 87f0 	ldmia.w	sp!, {r4, r5, r6, r7, r8, r9, sl, pc}
 8003898:	464a      	mov	r2, r9
 800389a:	6921      	ldr	r1, [r4, #16]
 800389c:	f000 face 	bl	8003e3c <memcpy>
 80038a0:	89a3      	ldrh	r3, [r4, #12]
 80038a2:	f423 6390 	bic.w	r3, r3, #1152	; 0x480
 80038a6:	f043 0380 	orr.w	r3, r3, #128	; 0x80
 80038aa:	81a3      	strh	r3, [r4, #12]
 80038ac:	6126      	str	r6, [r4, #16]
 80038ae:	444e      	add	r6, r9
 80038b0:	6026      	str	r6, [r4, #0]
 80038b2:	463e      	mov	r6, r7
 80038b4:	6165      	str	r5, [r4, #20]
 80038b6:	eba5 0509 	sub.w	r5, r5, r9
 80038ba:	60a5      	str	r5, [r4, #8]
 80038bc:	42be      	cmp	r6, r7
 80038be:	d900      	bls.n	80038c2 <__ssputs_r+0x86>
 80038c0:	463e      	mov	r6, r7
 80038c2:	4632      	mov	r2, r6
 80038c4:	4641      	mov	r1, r8
 80038c6:	6820      	ldr	r0, [r4, #0]
 80038c8:	f000 fac6 	bl	8003e58 <memmove>
 80038cc:	68a3      	ldr	r3, [r4, #8]
 80038ce:	6822      	ldr	r2, [r4, #0]
 80038d0:	1b9b      	subs	r3, r3, r6
 80038d2:	4432      	add	r2, r6
 80038d4:	2000      	movs	r0, #0
 80038d6:	60a3      	str	r3, [r4, #8]
 80038d8:	6022      	str	r2, [r4, #0]
 80038da:	e7db      	b.n	8003894 <__ssputs_r+0x58>
 80038dc:	462a      	mov	r2, r5
 80038de:	f000 fb7b 	bl	8003fd8 <_realloc_r>
 80038e2:	4606      	mov	r6, r0
 80038e4:	2800      	cmp	r0, #0
 80038e6:	d1e1      	bne.n	80038ac <__ssputs_r+0x70>
 80038e8:	4650      	mov	r0, sl
 80038ea:	6921      	ldr	r1, [r4, #16]
 80038ec:	f000 face 	bl	8003e8c <_free_r>
 80038f0:	e7c7      	b.n	8003882 <__ssputs_r+0x46>
	...

080038f4 <_svfiprintf_r>:
 80038f4:	e92d 4ff0 	stmdb	sp!, {r4, r5, r6, r7, r8, r9, sl, fp, lr}
 80038f8:	4698      	mov	r8, r3
 80038fa:	898b      	ldrh	r3, [r1, #12]
 80038fc:	4607      	mov	r7, r0
 80038fe:	061b      	lsls	r3, r3, #24
 8003900:	460d      	mov	r5, r1
 8003902:	4614      	mov	r4, r2
 8003904:	b09d      	sub	sp, #116	; 0x74
 8003906:	d50e      	bpl.n	8003926 <_svfiprintf_r+0x32>
 8003908:	690b      	ldr	r3, [r1, #16]
 800390a:	b963      	cbnz	r3, 8003926 <_svfiprintf_r+0x32>
 800390c:	2140      	movs	r1, #64	; 0x40
 800390e:	f000 fb09 	bl	8003f24 <_malloc_r>
 8003912:	6028      	str	r0, [r5, #0]
 8003914:	6128      	str	r0, [r5, #16]
 8003916:	b920      	cbnz	r0, 8003922 <_svfiprintf_r+0x2e>
 8003918:	230c      	movs	r3, #12
 800391a:	603b      	str	r3, [r7, #0]
 800391c:	f04f 30ff 	mov.w	r0, #4294967295
 8003920:	e0d1      	b.n	8003ac6 <_svfiprintf_r+0x1d2>
 8003922:	2340      	movs	r3, #64	; 0x40
 8003924:	616b      	str	r3, [r5, #20]
 8003926:	2300      	movs	r3, #0
 8003928:	9309      	str	r3, [sp, #36]	; 0x24
 800392a:	2320      	movs	r3, #32
 800392c:	f88d 3029 	strb.w	r3, [sp, #41]	; 0x29
 8003930:	2330      	movs	r3, #48	; 0x30
 8003932:	f04f 0901 	mov.w	r9, #1
 8003936:	f8cd 800c 	str.w	r8, [sp, #12]
 800393a:	f8df 81a4 	ldr.w	r8, [pc, #420]	; 8003ae0 <_svfiprintf_r+0x1ec>
 800393e:	f88d 302a 	strb.w	r3, [sp, #42]	; 0x2a
 8003942:	4623      	mov	r3, r4
 8003944:	469a      	mov	sl, r3
 8003946:	f813 2b01 	ldrb.w	r2, [r3], #1
 800394a:	b10a      	cbz	r2, 8003950 <_svfiprintf_r+0x5c>
 800394c:	2a25      	cmp	r2, #37	; 0x25
 800394e:	d1f9      	bne.n	8003944 <_svfiprintf_r+0x50>
 8003950:	ebba 0b04 	subs.w	fp, sl, r4
 8003954:	d00b      	beq.n	800396e <_svfiprintf_r+0x7a>
 8003956:	465b      	mov	r3, fp
 8003958:	4622      	mov	r2, r4
 800395a:	4629      	mov	r1, r5
 800395c:	4638      	mov	r0, r7
 800395e:	f7ff ff6d 	bl	800383c <__ssputs_r>
 8003962:	3001      	adds	r0, #1
 8003964:	f000 80aa 	beq.w	8003abc <_svfiprintf_r+0x1c8>
 8003968:	9a09      	ldr	r2, [sp, #36]	; 0x24
 800396a:	445a      	add	r2, fp
 800396c:	9209      	str	r2, [sp, #36]	; 0x24
 800396e:	f89a 3000 	ldrb.w	r3, [sl]
 8003972:	2b00      	cmp	r3, #0
 8003974:	f000 80a2 	beq.w	8003abc <_svfiprintf_r+0x1c8>
 8003978:	2300      	movs	r3, #0
 800397a:	f04f 32ff 	mov.w	r2, #4294967295
 800397e:	e9cd 2305 	strd	r2, r3, [sp, #20]
 8003982:	f10a 0a01 	add.w	sl, sl, #1
 8003986:	9304      	str	r3, [sp, #16]
 8003988:	9307      	str	r3, [sp, #28]
 800398a:	f88d 3053 	strb.w	r3, [sp, #83]	; 0x53
 800398e:	931a      	str	r3, [sp, #104]	; 0x68
 8003990:	4654      	mov	r4, sl
 8003992:	2205      	movs	r2, #5
 8003994:	f814 1b01 	ldrb.w	r1, [r4], #1
 8003998:	4851      	ldr	r0, [pc, #324]	; (8003ae0 <_svfiprintf_r+0x1ec>)
 800399a:	f000 fa41 	bl	8003e20 <memchr>
 800399e:	9a04      	ldr	r2, [sp, #16]
 80039a0:	b9d8      	cbnz	r0, 80039da <_svfiprintf_r+0xe6>
 80039a2:	06d0      	lsls	r0, r2, #27
 80039a4:	bf44      	itt	mi
 80039a6:	2320      	movmi	r3, #32
 80039a8:	f88d 3053 	strbmi.w	r3, [sp, #83]	; 0x53
 80039ac:	0711      	lsls	r1, r2, #28
 80039ae:	bf44      	itt	mi
 80039b0:	232b      	movmi	r3, #43	; 0x2b
 80039b2:	f88d 3053 	strbmi.w	r3, [sp, #83]	; 0x53
 80039b6:	f89a 3000 	ldrb.w	r3, [sl]
 80039ba:	2b2a      	cmp	r3, #42	; 0x2a
 80039bc:	d015      	beq.n	80039ea <_svfiprintf_r+0xf6>
 80039be:	4654      	mov	r4, sl
 80039c0:	2000      	movs	r0, #0
 80039c2:	f04f 0c0a 	mov.w	ip, #10
 80039c6:	9a07      	ldr	r2, [sp, #28]
 80039c8:	4621      	mov	r1, r4
 80039ca:	f811 3b01 	ldrb.w	r3, [r1], #1
 80039ce:	3b30      	subs	r3, #48	; 0x30
 80039d0:	2b09      	cmp	r3, #9
 80039d2:	d94e      	bls.n	8003a72 <_svfiprintf_r+0x17e>
 80039d4:	b1b0      	cbz	r0, 8003a04 <_svfiprintf_r+0x110>
 80039d6:	9207      	str	r2, [sp, #28]
 80039d8:	e014      	b.n	8003a04 <_svfiprintf_r+0x110>
 80039da:	eba0 0308 	sub.w	r3, r0, r8
 80039de:	fa09 f303 	lsl.w	r3, r9, r3
 80039e2:	4313      	orrs	r3, r2
 80039e4:	46a2      	mov	sl, r4
 80039e6:	9304      	str	r3, [sp, #16]
 80039e8:	e7d2      	b.n	8003990 <_svfiprintf_r+0x9c>
 80039ea:	9b03      	ldr	r3, [sp, #12]
 80039ec:	1d19      	adds	r1, r3, #4
 80039ee:	681b      	ldr	r3, [r3, #0]
 80039f0:	9103      	str	r1, [sp, #12]
 80039f2:	2b00      	cmp	r3, #0
 80039f4:	bfbb      	ittet	lt
 80039f6:	425b      	neglt	r3, r3
 80039f8:	f042 0202 	orrlt.w	r2, r2, #2
 80039fc:	9307      	strge	r3, [sp, #28]
 80039fe:	9307      	strlt	r3, [sp, #28]
 8003a00:	bfb8      	it	lt
 8003a02:	9204      	strlt	r2, [sp, #16]
 8003a04:	7823      	ldrb	r3, [r4, #0]
 8003a06:	2b2e      	cmp	r3, #46	; 0x2e
 8003a08:	d10c      	bne.n	8003a24 <_svfiprintf_r+0x130>
 8003a0a:	7863      	ldrb	r3, [r4, #1]
 8003a0c:	2b2a      	cmp	r3, #42	; 0x2a
 8003a0e:	d135      	bne.n	8003a7c <_svfiprintf_r+0x188>
 8003a10:	9b03      	ldr	r3, [sp, #12]
 8003a12:	3402      	adds	r4, #2
 8003a14:	1d1a      	adds	r2, r3, #4
 8003a16:	681b      	ldr	r3, [r3, #0]
 8003a18:	9203      	str	r2, [sp, #12]
 8003a1a:	2b00      	cmp	r3, #0
 8003a1c:	bfb8      	it	lt
 8003a1e:	f04f 33ff 	movlt.w	r3, #4294967295
 8003a22:	9305      	str	r3, [sp, #20]
 8003a24:	f8df a0c8 	ldr.w	sl, [pc, #200]	; 8003af0 <_svfiprintf_r+0x1fc>
 8003a28:	2203      	movs	r2, #3
 8003a2a:	4650      	mov	r0, sl
 8003a2c:	7821      	ldrb	r1, [r4, #0]
 8003a2e:	f000 f9f7 	bl	8003e20 <memchr>
 8003a32:	b140      	cbz	r0, 8003a46 <_svfiprintf_r+0x152>
 8003a34:	2340      	movs	r3, #64	; 0x40
 8003a36:	eba0 000a 	sub.w	r0, r0, sl
 8003a3a:	fa03 f000 	lsl.w	r0, r3, r0
 8003a3e:	9b04      	ldr	r3, [sp, #16]
 8003a40:	3401      	adds	r4, #1
 8003a42:	4303      	orrs	r3, r0
 8003a44:	9304      	str	r3, [sp, #16]
 8003a46:	f814 1b01 	ldrb.w	r1, [r4], #1
 8003a4a:	2206      	movs	r2, #6
 8003a4c:	4825      	ldr	r0, [pc, #148]	; (8003ae4 <_svfiprintf_r+0x1f0>)
 8003a4e:	f88d 1028 	strb.w	r1, [sp, #40]	; 0x28
 8003a52:	f000 f9e5 	bl	8003e20 <memchr>
 8003a56:	2800      	cmp	r0, #0
 8003a58:	d038      	beq.n	8003acc <_svfiprintf_r+0x1d8>
 8003a5a:	4b23      	ldr	r3, [pc, #140]	; (8003ae8 <_svfiprintf_r+0x1f4>)
 8003a5c:	bb1b      	cbnz	r3, 8003aa6 <_svfiprintf_r+0x1b2>
 8003a5e:	9b03      	ldr	r3, [sp, #12]
 8003a60:	3307      	adds	r3, #7
 8003a62:	f023 0307 	bic.w	r3, r3, #7
 8003a66:	3308      	adds	r3, #8
 8003a68:	9303      	str	r3, [sp, #12]
 8003a6a:	9b09      	ldr	r3, [sp, #36]	; 0x24
 8003a6c:	4433      	add	r3, r6
 8003a6e:	9309      	str	r3, [sp, #36]	; 0x24
 8003a70:	e767      	b.n	8003942 <_svfiprintf_r+0x4e>
 8003a72:	460c      	mov	r4, r1
 8003a74:	2001      	movs	r0, #1
 8003a76:	fb0c 3202 	mla	r2, ip, r2, r3
 8003a7a:	e7a5      	b.n	80039c8 <_svfiprintf_r+0xd4>
 8003a7c:	2300      	movs	r3, #0
 8003a7e:	f04f 0c0a 	mov.w	ip, #10
 8003a82:	4619      	mov	r1, r3
 8003a84:	3401      	adds	r4, #1
 8003a86:	9305      	str	r3, [sp, #20]
 8003a88:	4620      	mov	r0, r4
 8003a8a:	f810 2b01 	ldrb.w	r2, [r0], #1
 8003a8e:	3a30      	subs	r2, #48	; 0x30
 8003a90:	2a09      	cmp	r2, #9
 8003a92:	d903      	bls.n	8003a9c <_svfiprintf_r+0x1a8>
 8003a94:	2b00      	cmp	r3, #0
 8003a96:	d0c5      	beq.n	8003a24 <_svfiprintf_r+0x130>
 8003a98:	9105      	str	r1, [sp, #20]
 8003a9a:	e7c3      	b.n	8003a24 <_svfiprintf_r+0x130>
 8003a9c:	4604      	mov	r4, r0
 8003a9e:	2301      	movs	r3, #1
 8003aa0:	fb0c 2101 	mla	r1, ip, r1, r2
 8003aa4:	e7f0      	b.n	8003a88 <_svfiprintf_r+0x194>
 8003aa6:	ab03      	add	r3, sp, #12
 8003aa8:	9300      	str	r3, [sp, #0]
 8003aaa:	462a      	mov	r2, r5
 8003aac:	4638      	mov	r0, r7
 8003aae:	4b0f      	ldr	r3, [pc, #60]	; (8003aec <_svfiprintf_r+0x1f8>)
 8003ab0:	a904      	add	r1, sp, #16
 8003ab2:	f3af 8000 	nop.w
 8003ab6:	1c42      	adds	r2, r0, #1
 8003ab8:	4606      	mov	r6, r0
 8003aba:	d1d6      	bne.n	8003a6a <_svfiprintf_r+0x176>
 8003abc:	89ab      	ldrh	r3, [r5, #12]
 8003abe:	065b      	lsls	r3, r3, #25
 8003ac0:	f53f af2c 	bmi.w	800391c <_svfiprintf_r+0x28>
 8003ac4:	9809      	ldr	r0, [sp, #36]	; 0x24
 8003ac6:	b01d      	add	sp, #116	; 0x74
 8003ac8:	e8bd 8ff0 	ldmia.w	sp!, {r4, r5, r6, r7, r8, r9, sl, fp, pc}
 8003acc:	ab03      	add	r3, sp, #12
 8003ace:	9300      	str	r3, [sp, #0]
 8003ad0:	462a      	mov	r2, r5
 8003ad2:	4638      	mov	r0, r7
 8003ad4:	4b05      	ldr	r3, [pc, #20]	; (8003aec <_svfiprintf_r+0x1f8>)
 8003ad6:	a904      	add	r1, sp, #16
 8003ad8:	f000 f87c 	bl	8003bd4 <_printf_i>
 8003adc:	e7eb      	b.n	8003ab6 <_svfiprintf_r+0x1c2>
 8003ade:	bf00      	nop
 8003ae0:	08005451 	.word	0x08005451
 8003ae4:	0800545b 	.word	0x0800545b
 8003ae8:	00000000 	.word	0x00000000
 8003aec:	0800383d 	.word	0x0800383d
 8003af0:	08005457 	.word	0x08005457

08003af4 <_printf_common>:
 8003af4:	e92d 47f0 	stmdb	sp!, {r4, r5, r6, r7, r8, r9, sl, lr}
 8003af8:	4616      	mov	r6, r2
 8003afa:	4699      	mov	r9, r3
 8003afc:	688a      	ldr	r2, [r1, #8]
 8003afe:	690b      	ldr	r3, [r1, #16]
 8003b00:	4607      	mov	r7, r0
 8003b02:	4293      	cmp	r3, r2
 8003b04:	bfb8      	it	lt
 8003b06:	4613      	movlt	r3, r2
 8003b08:	6033      	str	r3, [r6, #0]
 8003b0a:	f891 2043 	ldrb.w	r2, [r1, #67]	; 0x43
 8003b0e:	460c      	mov	r4, r1
 8003b10:	f8dd 8020 	ldr.w	r8, [sp, #32]
 8003b14:	b10a      	cbz	r2, 8003b1a <_printf_common+0x26>
 8003b16:	3301      	adds	r3, #1
 8003b18:	6033      	str	r3, [r6, #0]
 8003b1a:	6823      	ldr	r3, [r4, #0]
 8003b1c:	0699      	lsls	r1, r3, #26
 8003b1e:	bf42      	ittt	mi
 8003b20:	6833      	ldrmi	r3, [r6, #0]
 8003b22:	3302      	addmi	r3, #2
 8003b24:	6033      	strmi	r3, [r6, #0]
 8003b26:	6825      	ldr	r5, [r4, #0]
 8003b28:	f015 0506 	ands.w	r5, r5, #6
 8003b2c:	d106      	bne.n	8003b3c <_printf_common+0x48>
 8003b2e:	f104 0a19 	add.w	sl, r4, #25
 8003b32:	68e3      	ldr	r3, [r4, #12]
 8003b34:	6832      	ldr	r2, [r6, #0]
 8003b36:	1a9b      	subs	r3, r3, r2
 8003b38:	42ab      	cmp	r3, r5
 8003b3a:	dc28      	bgt.n	8003b8e <_printf_common+0x9a>
 8003b3c:	f894 2043 	ldrb.w	r2, [r4, #67]	; 0x43
 8003b40:	1e13      	subs	r3, r2, #0
 8003b42:	6822      	ldr	r2, [r4, #0]
 8003b44:	bf18      	it	ne
 8003b46:	2301      	movne	r3, #1
 8003b48:	0692      	lsls	r2, r2, #26
 8003b4a:	d42d      	bmi.n	8003ba8 <_printf_common+0xb4>
 8003b4c:	4649      	mov	r1, r9
 8003b4e:	4638      	mov	r0, r7
 8003b50:	f104 0243 	add.w	r2, r4, #67	; 0x43
 8003b54:	47c0      	blx	r8
 8003b56:	3001      	adds	r0, #1
 8003b58:	d020      	beq.n	8003b9c <_printf_common+0xa8>
 8003b5a:	6823      	ldr	r3, [r4, #0]
 8003b5c:	68e5      	ldr	r5, [r4, #12]
 8003b5e:	f003 0306 	and.w	r3, r3, #6
 8003b62:	2b04      	cmp	r3, #4
 8003b64:	bf18      	it	ne
 8003b66:	2500      	movne	r5, #0
 8003b68:	6832      	ldr	r2, [r6, #0]
 8003b6a:	f04f 0600 	mov.w	r6, #0
 8003b6e:	68a3      	ldr	r3, [r4, #8]
 8003b70:	bf08      	it	eq
 8003b72:	1aad      	subeq	r5, r5, r2
 8003b74:	6922      	ldr	r2, [r4, #16]
 8003b76:	bf08      	it	eq
 8003b78:	ea25 75e5 	biceq.w	r5, r5, r5, asr #31
 8003b7c:	4293      	cmp	r3, r2
 8003b7e:	bfc4      	itt	gt
 8003b80:	1a9b      	subgt	r3, r3, r2
 8003b82:	18ed      	addgt	r5, r5, r3
 8003b84:	341a      	adds	r4, #26
 8003b86:	42b5      	cmp	r5, r6
 8003b88:	d11a      	bne.n	8003bc0 <_printf_common+0xcc>
 8003b8a:	2000      	movs	r0, #0
 8003b8c:	e008      	b.n	8003ba0 <_printf_common+0xac>
 8003b8e:	2301      	movs	r3, #1
 8003b90:	4652      	mov	r2, sl
 8003b92:	4649      	mov	r1, r9
 8003b94:	4638      	mov	r0, r7
 8003b96:	47c0      	blx	r8
 8003b98:	3001      	adds	r0, #1
 8003b9a:	d103      	bne.n	8003ba4 <_printf_common+0xb0>
 8003b9c:	f04f 30ff 	mov.w	r0, #4294967295
 8003ba0:	e8bd 87f0 	ldmia.w	sp!, {r4, r5, r6, r7, r8, r9, sl, pc}
 8003ba4:	3501      	adds	r5, #1
 8003ba6:	e7c4      	b.n	8003b32 <_printf_common+0x3e>
 8003ba8:	2030      	movs	r0, #48	; 0x30
 8003baa:	18e1      	adds	r1, r4, r3
 8003bac:	f881 0043 	strb.w	r0, [r1, #67]	; 0x43
 8003bb0:	1c5a      	adds	r2, r3, #1
 8003bb2:	f894 1045 	ldrb.w	r1, [r4, #69]	; 0x45
 8003bb6:	4422      	add	r2, r4
 8003bb8:	3302      	adds	r3, #2
 8003bba:	f882 1043 	strb.w	r1, [r2, #67]	; 0x43
 8003bbe:	e7c5      	b.n	8003b4c <_printf_common+0x58>
 8003bc0:	2301      	movs	r3, #1
 8003bc2:	4622      	mov	r2, r4
 8003bc4:	4649      	mov	r1, r9
 8003bc6:	4638      	mov	r0, r7
 8003bc8:	47c0      	blx	r8
 8003bca:	3001      	adds	r0, #1
 8003bcc:	d0e6      	beq.n	8003b9c <_printf_common+0xa8>
 8003bce:	3601      	adds	r6, #1
 8003bd0:	e7d9      	b.n	8003b86 <_printf_common+0x92>
	...

08003bd4 <_printf_i>:
 8003bd4:	e92d 47ff 	stmdb	sp!, {r0, r1, r2, r3, r4, r5, r6, r7, r8, r9, sl, lr}
 8003bd8:	460c      	mov	r4, r1
 8003bda:	7e27      	ldrb	r7, [r4, #24]
 8003bdc:	4691      	mov	r9, r2
 8003bde:	2f78      	cmp	r7, #120	; 0x78
 8003be0:	4680      	mov	r8, r0
 8003be2:	469a      	mov	sl, r3
 8003be4:	990c      	ldr	r1, [sp, #48]	; 0x30
 8003be6:	f104 0243 	add.w	r2, r4, #67	; 0x43
 8003bea:	d807      	bhi.n	8003bfc <_printf_i+0x28>
 8003bec:	2f62      	cmp	r7, #98	; 0x62
 8003bee:	d80a      	bhi.n	8003c06 <_printf_i+0x32>
 8003bf0:	2f00      	cmp	r7, #0
 8003bf2:	f000 80d9 	beq.w	8003da8 <_printf_i+0x1d4>
 8003bf6:	2f58      	cmp	r7, #88	; 0x58
 8003bf8:	f000 80a4 	beq.w	8003d44 <_printf_i+0x170>
 8003bfc:	f104 0642 	add.w	r6, r4, #66	; 0x42
 8003c00:	f884 7042 	strb.w	r7, [r4, #66]	; 0x42
 8003c04:	e03a      	b.n	8003c7c <_printf_i+0xa8>
 8003c06:	f1a7 0363 	sub.w	r3, r7, #99	; 0x63
 8003c0a:	2b15      	cmp	r3, #21
 8003c0c:	d8f6      	bhi.n	8003bfc <_printf_i+0x28>
 8003c0e:	a001      	add	r0, pc, #4	; (adr r0, 8003c14 <_printf_i+0x40>)
 8003c10:	f850 f023 	ldr.w	pc, [r0, r3, lsl #2]
 8003c14:	08003c6d 	.word	0x08003c6d
 8003c18:	08003c81 	.word	0x08003c81
 8003c1c:	08003bfd 	.word	0x08003bfd
 8003c20:	08003bfd 	.word	0x08003bfd
 8003c24:	08003bfd 	.word	0x08003bfd
 8003c28:	08003bfd 	.word	0x08003bfd
 8003c2c:	08003c81 	.word	0x08003c81
 8003c30:	08003bfd 	.word	0x08003bfd
 8003c34:	08003bfd 	.word	0x08003bfd
 8003c38:	08003bfd 	.word	0x08003bfd
 8003c3c:	08003bfd 	.word	0x08003bfd
 8003c40:	08003d8f 	.word	0x08003d8f
 8003c44:	08003cb1 	.word	0x08003cb1
 8003c48:	08003d71 	.word	0x08003d71
 8003c4c:	08003bfd 	.word	0x08003bfd
 8003c50:	08003bfd 	.word	0x08003bfd
 8003c54:	08003db1 	.word	0x08003db1
 8003c58:	08003bfd 	.word	0x08003bfd
 8003c5c:	08003cb1 	.word	0x08003cb1
 8003c60:	08003bfd 	.word	0x08003bfd
 8003c64:	08003bfd 	.word	0x08003bfd
 8003c68:	08003d79 	.word	0x08003d79
 8003c6c:	680b      	ldr	r3, [r1, #0]
 8003c6e:	f104 0642 	add.w	r6, r4, #66	; 0x42
 8003c72:	1d1a      	adds	r2, r3, #4
 8003c74:	681b      	ldr	r3, [r3, #0]
 8003c76:	600a      	str	r2, [r1, #0]
 8003c78:	f884 3042 	strb.w	r3, [r4, #66]	; 0x42
 8003c7c:	2301      	movs	r3, #1
 8003c7e:	e0a4      	b.n	8003dca <_printf_i+0x1f6>
 8003c80:	6825      	ldr	r5, [r4, #0]
 8003c82:	6808      	ldr	r0, [r1, #0]
 8003c84:	062e      	lsls	r6, r5, #24
 8003c86:	f100 0304 	add.w	r3, r0, #4
 8003c8a:	d50a      	bpl.n	8003ca2 <_printf_i+0xce>
 8003c8c:	6805      	ldr	r5, [r0, #0]
 8003c8e:	600b      	str	r3, [r1, #0]
 8003c90:	2d00      	cmp	r5, #0
 8003c92:	da03      	bge.n	8003c9c <_printf_i+0xc8>
 8003c94:	232d      	movs	r3, #45	; 0x2d
 8003c96:	426d      	negs	r5, r5
 8003c98:	f884 3043 	strb.w	r3, [r4, #67]	; 0x43
 8003c9c:	230a      	movs	r3, #10
 8003c9e:	485e      	ldr	r0, [pc, #376]	; (8003e18 <_printf_i+0x244>)
 8003ca0:	e019      	b.n	8003cd6 <_printf_i+0x102>
 8003ca2:	f015 0f40 	tst.w	r5, #64	; 0x40
 8003ca6:	6805      	ldr	r5, [r0, #0]
 8003ca8:	600b      	str	r3, [r1, #0]
 8003caa:	bf18      	it	ne
 8003cac:	b22d      	sxthne	r5, r5
 8003cae:	e7ef      	b.n	8003c90 <_printf_i+0xbc>
 8003cb0:	680b      	ldr	r3, [r1, #0]
 8003cb2:	6825      	ldr	r5, [r4, #0]
 8003cb4:	1d18      	adds	r0, r3, #4
 8003cb6:	6008      	str	r0, [r1, #0]
 8003cb8:	0628      	lsls	r0, r5, #24
 8003cba:	d501      	bpl.n	8003cc0 <_printf_i+0xec>
 8003cbc:	681d      	ldr	r5, [r3, #0]
 8003cbe:	e002      	b.n	8003cc6 <_printf_i+0xf2>
 8003cc0:	0669      	lsls	r1, r5, #25
 8003cc2:	d5fb      	bpl.n	8003cbc <_printf_i+0xe8>
 8003cc4:	881d      	ldrh	r5, [r3, #0]
 8003cc6:	2f6f      	cmp	r7, #111	; 0x6f
 8003cc8:	bf0c      	ite	eq
 8003cca:	2308      	moveq	r3, #8
 8003ccc:	230a      	movne	r3, #10
 8003cce:	4852      	ldr	r0, [pc, #328]	; (8003e18 <_printf_i+0x244>)
 8003cd0:	2100      	movs	r1, #0
 8003cd2:	f884 1043 	strb.w	r1, [r4, #67]	; 0x43
 8003cd6:	6866      	ldr	r6, [r4, #4]
 8003cd8:	2e00      	cmp	r6, #0
 8003cda:	bfa8      	it	ge
 8003cdc:	6821      	ldrge	r1, [r4, #0]
 8003cde:	60a6      	str	r6, [r4, #8]
 8003ce0:	bfa4      	itt	ge
 8003ce2:	f021 0104 	bicge.w	r1, r1, #4
 8003ce6:	6021      	strge	r1, [r4, #0]
 8003ce8:	b90d      	cbnz	r5, 8003cee <_printf_i+0x11a>
 8003cea:	2e00      	cmp	r6, #0
 8003cec:	d04d      	beq.n	8003d8a <_printf_i+0x1b6>
 8003cee:	4616      	mov	r6, r2
 8003cf0:	fbb5 f1f3 	udiv	r1, r5, r3
 8003cf4:	fb03 5711 	mls	r7, r3, r1, r5
 8003cf8:	5dc7      	ldrb	r7, [r0, r7]
 8003cfa:	f806 7d01 	strb.w	r7, [r6, #-1]!
 8003cfe:	462f      	mov	r7, r5
 8003d00:	42bb      	cmp	r3, r7
 8003d02:	460d      	mov	r5, r1
 8003d04:	d9f4      	bls.n	8003cf0 <_printf_i+0x11c>
 8003d06:	2b08      	cmp	r3, #8
 8003d08:	d10b      	bne.n	8003d22 <_printf_i+0x14e>
 8003d0a:	6823      	ldr	r3, [r4, #0]
 8003d0c:	07df      	lsls	r7, r3, #31
 8003d0e:	d508      	bpl.n	8003d22 <_printf_i+0x14e>
 8003d10:	6923      	ldr	r3, [r4, #16]
 8003d12:	6861      	ldr	r1, [r4, #4]
 8003d14:	4299      	cmp	r1, r3
 8003d16:	bfde      	ittt	le
 8003d18:	2330      	movle	r3, #48	; 0x30
 8003d1a:	f806 3c01 	strble.w	r3, [r6, #-1]
 8003d1e:	f106 36ff 	addle.w	r6, r6, #4294967295
 8003d22:	1b92      	subs	r2, r2, r6
 8003d24:	6122      	str	r2, [r4, #16]
 8003d26:	464b      	mov	r3, r9
 8003d28:	4621      	mov	r1, r4
 8003d2a:	4640      	mov	r0, r8
 8003d2c:	f8cd a000 	str.w	sl, [sp]
 8003d30:	aa03      	add	r2, sp, #12
 8003d32:	f7ff fedf 	bl	8003af4 <_printf_common>
 8003d36:	3001      	adds	r0, #1
 8003d38:	d14c      	bne.n	8003dd4 <_printf_i+0x200>
 8003d3a:	f04f 30ff 	mov.w	r0, #4294967295
 8003d3e:	b004      	add	sp, #16
 8003d40:	e8bd 87f0 	ldmia.w	sp!, {r4, r5, r6, r7, r8, r9, sl, pc}
 8003d44:	4834      	ldr	r0, [pc, #208]	; (8003e18 <_printf_i+0x244>)
 8003d46:	f884 7045 	strb.w	r7, [r4, #69]	; 0x45
 8003d4a:	680e      	ldr	r6, [r1, #0]
 8003d4c:	6823      	ldr	r3, [r4, #0]
 8003d4e:	f856 5b04 	ldr.w	r5, [r6], #4
 8003d52:	061f      	lsls	r7, r3, #24
 8003d54:	600e      	str	r6, [r1, #0]
 8003d56:	d514      	bpl.n	8003d82 <_printf_i+0x1ae>
 8003d58:	07d9      	lsls	r1, r3, #31
 8003d5a:	bf44      	itt	mi
 8003d5c:	f043 0320 	orrmi.w	r3, r3, #32
 8003d60:	6023      	strmi	r3, [r4, #0]
 8003d62:	b91d      	cbnz	r5, 8003d6c <_printf_i+0x198>
 8003d64:	6823      	ldr	r3, [r4, #0]
 8003d66:	f023 0320 	bic.w	r3, r3, #32
 8003d6a:	6023      	str	r3, [r4, #0]
 8003d6c:	2310      	movs	r3, #16
 8003d6e:	e7af      	b.n	8003cd0 <_printf_i+0xfc>
 8003d70:	6823      	ldr	r3, [r4, #0]
 8003d72:	f043 0320 	orr.w	r3, r3, #32
 8003d76:	6023      	str	r3, [r4, #0]
 8003d78:	2378      	movs	r3, #120	; 0x78
 8003d7a:	4828      	ldr	r0, [pc, #160]	; (8003e1c <_printf_i+0x248>)
 8003d7c:	f884 3045 	strb.w	r3, [r4, #69]	; 0x45
 8003d80:	e7e3      	b.n	8003d4a <_printf_i+0x176>
 8003d82:	065e      	lsls	r6, r3, #25
 8003d84:	bf48      	it	mi
 8003d86:	b2ad      	uxthmi	r5, r5
 8003d88:	e7e6      	b.n	8003d58 <_printf_i+0x184>
 8003d8a:	4616      	mov	r6, r2
 8003d8c:	e7bb      	b.n	8003d06 <_printf_i+0x132>
 8003d8e:	680b      	ldr	r3, [r1, #0]
 8003d90:	6826      	ldr	r6, [r4, #0]
 8003d92:	1d1d      	adds	r5, r3, #4
 8003d94:	6960      	ldr	r0, [r4, #20]
 8003d96:	600d      	str	r5, [r1, #0]
 8003d98:	0635      	lsls	r5, r6, #24
 8003d9a:	681b      	ldr	r3, [r3, #0]
 8003d9c:	d501      	bpl.n	8003da2 <_printf_i+0x1ce>
 8003d9e:	6018      	str	r0, [r3, #0]
 8003da0:	e002      	b.n	8003da8 <_printf_i+0x1d4>
 8003da2:	0671      	lsls	r1, r6, #25
 8003da4:	d5fb      	bpl.n	8003d9e <_printf_i+0x1ca>
 8003da6:	8018      	strh	r0, [r3, #0]
 8003da8:	2300      	movs	r3, #0
 8003daa:	4616      	mov	r6, r2
 8003dac:	6123      	str	r3, [r4, #16]
 8003dae:	e7ba      	b.n	8003d26 <_printf_i+0x152>
 8003db0:	680b      	ldr	r3, [r1, #0]
 8003db2:	1d1a      	adds	r2, r3, #4
 8003db4:	600a      	str	r2, [r1, #0]
 8003db6:	681e      	ldr	r6, [r3, #0]
 8003db8:	2100      	movs	r1, #0
 8003dba:	4630      	mov	r0, r6
 8003dbc:	6862      	ldr	r2, [r4, #4]
 8003dbe:	f000 f82f 	bl	8003e20 <memchr>
 8003dc2:	b108      	cbz	r0, 8003dc8 <_printf_i+0x1f4>
 8003dc4:	1b80      	subs	r0, r0, r6
 8003dc6:	6060      	str	r0, [r4, #4]
 8003dc8:	6863      	ldr	r3, [r4, #4]
 8003dca:	6123      	str	r3, [r4, #16]
 8003dcc:	2300      	movs	r3, #0
 8003dce:	f884 3043 	strb.w	r3, [r4, #67]	; 0x43
 8003dd2:	e7a8      	b.n	8003d26 <_printf_i+0x152>
 8003dd4:	4632      	mov	r2, r6
 8003dd6:	4649      	mov	r1, r9
 8003dd8:	4640      	mov	r0, r8
 8003dda:	6923      	ldr	r3, [r4, #16]
 8003ddc:	47d0      	blx	sl
 8003dde:	3001      	adds	r0, #1
 8003de0:	d0ab      	beq.n	8003d3a <_printf_i+0x166>
 8003de2:	6823      	ldr	r3, [r4, #0]
 8003de4:	079b      	lsls	r3, r3, #30
 8003de6:	d413      	bmi.n	8003e10 <_printf_i+0x23c>
 8003de8:	68e0      	ldr	r0, [r4, #12]
 8003dea:	9b03      	ldr	r3, [sp, #12]
 8003dec:	4298      	cmp	r0, r3
 8003dee:	bfb8      	it	lt
 8003df0:	4618      	movlt	r0, r3
 8003df2:	e7a4      	b.n	8003d3e <_printf_i+0x16a>
 8003df4:	2301      	movs	r3, #1
 8003df6:	4632      	mov	r2, r6
 8003df8:	4649      	mov	r1, r9
 8003dfa:	4640      	mov	r0, r8
 8003dfc:	47d0      	blx	sl
 8003dfe:	3001      	adds	r0, #1
 8003e00:	d09b      	beq.n	8003d3a <_printf_i+0x166>
 8003e02:	3501      	adds	r5, #1
 8003e04:	68e3      	ldr	r3, [r4, #12]
 8003e06:	9903      	ldr	r1, [sp, #12]
 8003e08:	1a5b      	subs	r3, r3, r1
 8003e0a:	42ab      	cmp	r3, r5
 8003e0c:	dcf2      	bgt.n	8003df4 <_printf_i+0x220>
 8003e0e:	e7eb      	b.n	8003de8 <_printf_i+0x214>
 8003e10:	2500      	movs	r5, #0
 8003e12:	f104 0619 	add.w	r6, r4, #25
 8003e16:	e7f5      	b.n	8003e04 <_printf_i+0x230>
 8003e18:	08005462 	.word	0x08005462
 8003e1c:	08005473 	.word	0x08005473

08003e20 <memchr>:
 8003e20:	4603      	mov	r3, r0
 8003e22:	b510      	push	{r4, lr}
 8003e24:	b2c9      	uxtb	r1, r1
 8003e26:	4402      	add	r2, r0
 8003e28:	4293      	cmp	r3, r2
 8003e2a:	4618      	mov	r0, r3
 8003e2c:	d101      	bne.n	8003e32 <memchr+0x12>
 8003e2e:	2000      	movs	r0, #0
 8003e30:	e003      	b.n	8003e3a <memchr+0x1a>
 8003e32:	7804      	ldrb	r4, [r0, #0]
 8003e34:	3301      	adds	r3, #1
 8003e36:	428c      	cmp	r4, r1
 8003e38:	d1f6      	bne.n	8003e28 <memchr+0x8>
 8003e3a:	bd10      	pop	{r4, pc}

08003e3c <memcpy>:
 8003e3c:	440a      	add	r2, r1
 8003e3e:	4291      	cmp	r1, r2
 8003e40:	f100 33ff 	add.w	r3, r0, #4294967295
 8003e44:	d100      	bne.n	8003e48 <memcpy+0xc>
 8003e46:	4770      	bx	lr
 8003e48:	b510      	push	{r4, lr}
 8003e4a:	f811 4b01 	ldrb.w	r4, [r1], #1
 8003e4e:	4291      	cmp	r1, r2
 8003e50:	f803 4f01 	strb.w	r4, [r3, #1]!
 8003e54:	d1f9      	bne.n	8003e4a <memcpy+0xe>
 8003e56:	bd10      	pop	{r4, pc}

08003e58 <memmove>:
 8003e58:	4288      	cmp	r0, r1
 8003e5a:	b510      	push	{r4, lr}
 8003e5c:	eb01 0402 	add.w	r4, r1, r2
 8003e60:	d902      	bls.n	8003e68 <memmove+0x10>
 8003e62:	4284      	cmp	r4, r0
 8003e64:	4623      	mov	r3, r4
 8003e66:	d807      	bhi.n	8003e78 <memmove+0x20>
 8003e68:	1e43      	subs	r3, r0, #1
 8003e6a:	42a1      	cmp	r1, r4
 8003e6c:	d008      	beq.n	8003e80 <memmove+0x28>
 8003e6e:	f811 2b01 	ldrb.w	r2, [r1], #1
 8003e72:	f803 2f01 	strb.w	r2, [r3, #1]!
 8003e76:	e7f8      	b.n	8003e6a <memmove+0x12>
 8003e78:	4601      	mov	r1, r0
 8003e7a:	4402      	add	r2, r0
 8003e7c:	428a      	cmp	r2, r1
 8003e7e:	d100      	bne.n	8003e82 <memmove+0x2a>
 8003e80:	bd10      	pop	{r4, pc}
 8003e82:	f813 4d01 	ldrb.w	r4, [r3, #-1]!
 8003e86:	f802 4d01 	strb.w	r4, [r2, #-1]!
 8003e8a:	e7f7      	b.n	8003e7c <memmove+0x24>

08003e8c <_free_r>:
 8003e8c:	b538      	push	{r3, r4, r5, lr}
 8003e8e:	4605      	mov	r5, r0
 8003e90:	2900      	cmp	r1, #0
 8003e92:	d043      	beq.n	8003f1c <_free_r+0x90>
 8003e94:	f851 3c04 	ldr.w	r3, [r1, #-4]
 8003e98:	1f0c      	subs	r4, r1, #4
 8003e9a:	2b00      	cmp	r3, #0
 8003e9c:	bfb8      	it	lt
 8003e9e:	18e4      	addlt	r4, r4, r3
 8003ea0:	f000 f8d0 	bl	8004044 <__malloc_lock>
 8003ea4:	4a1e      	ldr	r2, [pc, #120]	; (8003f20 <_free_r+0x94>)
 8003ea6:	6813      	ldr	r3, [r2, #0]
 8003ea8:	4610      	mov	r0, r2
 8003eaa:	b933      	cbnz	r3, 8003eba <_free_r+0x2e>
 8003eac:	6063      	str	r3, [r4, #4]
 8003eae:	6014      	str	r4, [r2, #0]
 8003eb0:	4628      	mov	r0, r5
 8003eb2:	e8bd 4038 	ldmia.w	sp!, {r3, r4, r5, lr}
 8003eb6:	f000 b8cb 	b.w	8004050 <__malloc_unlock>
 8003eba:	42a3      	cmp	r3, r4
 8003ebc:	d90a      	bls.n	8003ed4 <_free_r+0x48>
 8003ebe:	6821      	ldr	r1, [r4, #0]
 8003ec0:	1862      	adds	r2, r4, r1
 8003ec2:	4293      	cmp	r3, r2
 8003ec4:	bf01      	itttt	eq
 8003ec6:	681a      	ldreq	r2, [r3, #0]
 8003ec8:	685b      	ldreq	r3, [r3, #4]
 8003eca:	1852      	addeq	r2, r2, r1
 8003ecc:	6022      	streq	r2, [r4, #0]
 8003ece:	6063      	str	r3, [r4, #4]
 8003ed0:	6004      	str	r4, [r0, #0]
 8003ed2:	e7ed      	b.n	8003eb0 <_free_r+0x24>
 8003ed4:	461a      	mov	r2, r3
 8003ed6:	685b      	ldr	r3, [r3, #4]
 8003ed8:	b10b      	cbz	r3, 8003ede <_free_r+0x52>
 8003eda:	42a3      	cmp	r3, r4
 8003edc:	d9fa      	bls.n	8003ed4 <_free_r+0x48>
 8003ede:	6811      	ldr	r1, [r2, #0]
 8003ee0:	1850      	adds	r0, r2, r1
 8003ee2:	42a0      	cmp	r0, r4
 8003ee4:	d10b      	bne.n	8003efe <_free_r+0x72>
 8003ee6:	6820      	ldr	r0, [r4, #0]
 8003ee8:	4401      	add	r1, r0
 8003eea:	1850      	adds	r0, r2, r1
 8003eec:	4283      	cmp	r3, r0
 8003eee:	6011      	str	r1, [r2, #0]
 8003ef0:	d1de      	bne.n	8003eb0 <_free_r+0x24>
 8003ef2:	6818      	ldr	r0, [r3, #0]
 8003ef4:	685b      	ldr	r3, [r3, #4]
 8003ef6:	4401      	add	r1, r0
 8003ef8:	6011      	str	r1, [r2, #0]
 8003efa:	6053      	str	r3, [r2, #4]
 8003efc:	e7d8      	b.n	8003eb0 <_free_r+0x24>
 8003efe:	d902      	bls.n	8003f06 <_free_r+0x7a>
 8003f00:	230c      	movs	r3, #12
 8003f02:	602b      	str	r3, [r5, #0]
 8003f04:	e7d4      	b.n	8003eb0 <_free_r+0x24>
 8003f06:	6820      	ldr	r0, [r4, #0]
 8003f08:	1821      	adds	r1, r4, r0
 8003f0a:	428b      	cmp	r3, r1
 8003f0c:	bf01      	itttt	eq
 8003f0e:	6819      	ldreq	r1, [r3, #0]
 8003f10:	685b      	ldreq	r3, [r3, #4]
 8003f12:	1809      	addeq	r1, r1, r0
 8003f14:	6021      	streq	r1, [r4, #0]
 8003f16:	6063      	str	r3, [r4, #4]
 8003f18:	6054      	str	r4, [r2, #4]
 8003f1a:	e7c9      	b.n	8003eb0 <_free_r+0x24>
 8003f1c:	bd38      	pop	{r3, r4, r5, pc}
 8003f1e:	bf00      	nop
 8003f20:	200000dc 	.word	0x200000dc

08003f24 <_malloc_r>:
 8003f24:	b5f8      	push	{r3, r4, r5, r6, r7, lr}
 8003f26:	1ccd      	adds	r5, r1, #3
 8003f28:	f025 0503 	bic.w	r5, r5, #3
 8003f2c:	3508      	adds	r5, #8
 8003f2e:	2d0c      	cmp	r5, #12
 8003f30:	bf38      	it	cc
 8003f32:	250c      	movcc	r5, #12
 8003f34:	2d00      	cmp	r5, #0
 8003f36:	4606      	mov	r6, r0
 8003f38:	db01      	blt.n	8003f3e <_malloc_r+0x1a>
 8003f3a:	42a9      	cmp	r1, r5
 8003f3c:	d903      	bls.n	8003f46 <_malloc_r+0x22>
 8003f3e:	230c      	movs	r3, #12
 8003f40:	6033      	str	r3, [r6, #0]
 8003f42:	2000      	movs	r0, #0
 8003f44:	bdf8      	pop	{r3, r4, r5, r6, r7, pc}
 8003f46:	f000 f87d 	bl	8004044 <__malloc_lock>
 8003f4a:	4921      	ldr	r1, [pc, #132]	; (8003fd0 <_malloc_r+0xac>)
 8003f4c:	680a      	ldr	r2, [r1, #0]
 8003f4e:	4614      	mov	r4, r2
 8003f50:	b99c      	cbnz	r4, 8003f7a <_malloc_r+0x56>
 8003f52:	4f20      	ldr	r7, [pc, #128]	; (8003fd4 <_malloc_r+0xb0>)
 8003f54:	683b      	ldr	r3, [r7, #0]
 8003f56:	b923      	cbnz	r3, 8003f62 <_malloc_r+0x3e>
 8003f58:	4621      	mov	r1, r4
 8003f5a:	4630      	mov	r0, r6
 8003f5c:	f000 f862 	bl	8004024 <_sbrk_r>
 8003f60:	6038      	str	r0, [r7, #0]
 8003f62:	4629      	mov	r1, r5
 8003f64:	4630      	mov	r0, r6
 8003f66:	f000 f85d 	bl	8004024 <_sbrk_r>
 8003f6a:	1c43      	adds	r3, r0, #1
 8003f6c:	d123      	bne.n	8003fb6 <_malloc_r+0x92>
 8003f6e:	230c      	movs	r3, #12
 8003f70:	4630      	mov	r0, r6
 8003f72:	6033      	str	r3, [r6, #0]
 8003f74:	f000 f86c 	bl	8004050 <__malloc_unlock>
 8003f78:	e7e3      	b.n	8003f42 <_malloc_r+0x1e>
 8003f7a:	6823      	ldr	r3, [r4, #0]
 8003f7c:	1b5b      	subs	r3, r3, r5
 8003f7e:	d417      	bmi.n	8003fb0 <_malloc_r+0x8c>
 8003f80:	2b0b      	cmp	r3, #11
 8003f82:	d903      	bls.n	8003f8c <_malloc_r+0x68>
 8003f84:	6023      	str	r3, [r4, #0]
 8003f86:	441c      	add	r4, r3
 8003f88:	6025      	str	r5, [r4, #0]
 8003f8a:	e004      	b.n	8003f96 <_malloc_r+0x72>
 8003f8c:	6863      	ldr	r3, [r4, #4]
 8003f8e:	42a2      	cmp	r2, r4
 8003f90:	bf0c      	ite	eq
 8003f92:	600b      	streq	r3, [r1, #0]
 8003f94:	6053      	strne	r3, [r2, #4]
 8003f96:	4630      	mov	r0, r6
 8003f98:	f000 f85a 	bl	8004050 <__malloc_unlock>
 8003f9c:	f104 000b 	add.w	r0, r4, #11
 8003fa0:	1d23      	adds	r3, r4, #4
 8003fa2:	f020 0007 	bic.w	r0, r0, #7
 8003fa6:	1ac2      	subs	r2, r0, r3
 8003fa8:	d0cc      	beq.n	8003f44 <_malloc_r+0x20>
 8003faa:	1a1b      	subs	r3, r3, r0
 8003fac:	50a3      	str	r3, [r4, r2]
 8003fae:	e7c9      	b.n	8003f44 <_malloc_r+0x20>
 8003fb0:	4622      	mov	r2, r4
 8003fb2:	6864      	ldr	r4, [r4, #4]
 8003fb4:	e7cc      	b.n	8003f50 <_malloc_r+0x2c>
 8003fb6:	1cc4      	adds	r4, r0, #3
 8003fb8:	f024 0403 	bic.w	r4, r4, #3
 8003fbc:	42a0      	cmp	r0, r4
 8003fbe:	d0e3      	beq.n	8003f88 <_malloc_r+0x64>
 8003fc0:	1a21      	subs	r1, r4, r0
 8003fc2:	4630      	mov	r0, r6
 8003fc4:	f000 f82e 	bl	8004024 <_sbrk_r>
 8003fc8:	3001      	adds	r0, #1
 8003fca:	d1dd      	bne.n	8003f88 <_malloc_r+0x64>
 8003fcc:	e7cf      	b.n	8003f6e <_malloc_r+0x4a>
 8003fce:	bf00      	nop
 8003fd0:	200000dc 	.word	0x200000dc
 8003fd4:	200000e0 	.word	0x200000e0

08003fd8 <_realloc_r>:
 8003fd8:	b5f8      	push	{r3, r4, r5, r6, r7, lr}
 8003fda:	4607      	mov	r7, r0
 8003fdc:	4614      	mov	r4, r2
 8003fde:	460e      	mov	r6, r1
 8003fe0:	b921      	cbnz	r1, 8003fec <_realloc_r+0x14>
 8003fe2:	4611      	mov	r1, r2
 8003fe4:	e8bd 40f8 	ldmia.w	sp!, {r3, r4, r5, r6, r7, lr}
 8003fe8:	f7ff bf9c 	b.w	8003f24 <_malloc_r>
 8003fec:	b922      	cbnz	r2, 8003ff8 <_realloc_r+0x20>
 8003fee:	f7ff ff4d 	bl	8003e8c <_free_r>
 8003ff2:	4625      	mov	r5, r4
 8003ff4:	4628      	mov	r0, r5
 8003ff6:	bdf8      	pop	{r3, r4, r5, r6, r7, pc}
 8003ff8:	f000 f830 	bl	800405c <_malloc_usable_size_r>
 8003ffc:	42a0      	cmp	r0, r4
 8003ffe:	d20f      	bcs.n	8004020 <_realloc_r+0x48>
 8004000:	4621      	mov	r1, r4
 8004002:	4638      	mov	r0, r7
 8004004:	f7ff ff8e 	bl	8003f24 <_malloc_r>
 8004008:	4605      	mov	r5, r0
 800400a:	2800      	cmp	r0, #0
 800400c:	d0f2      	beq.n	8003ff4 <_realloc_r+0x1c>
 800400e:	4631      	mov	r1, r6
 8004010:	4622      	mov	r2, r4
 8004012:	f7ff ff13 	bl	8003e3c <memcpy>
 8004016:	4631      	mov	r1, r6
 8004018:	4638      	mov	r0, r7
 800401a:	f7ff ff37 	bl	8003e8c <_free_r>
 800401e:	e7e9      	b.n	8003ff4 <_realloc_r+0x1c>
 8004020:	4635      	mov	r5, r6
 8004022:	e7e7      	b.n	8003ff4 <_realloc_r+0x1c>

08004024 <_sbrk_r>:
 8004024:	b538      	push	{r3, r4, r5, lr}
 8004026:	2300      	movs	r3, #0
 8004028:	4d05      	ldr	r5, [pc, #20]	; (8004040 <_sbrk_r+0x1c>)
 800402a:	4604      	mov	r4, r0
 800402c:	4608      	mov	r0, r1
 800402e:	602b      	str	r3, [r5, #0]
 8004030:	f7fd ff9e 	bl	8001f70 <_sbrk>
 8004034:	1c43      	adds	r3, r0, #1
 8004036:	d102      	bne.n	800403e <_sbrk_r+0x1a>
 8004038:	682b      	ldr	r3, [r5, #0]
 800403a:	b103      	cbz	r3, 800403e <_sbrk_r+0x1a>
 800403c:	6023      	str	r3, [r4, #0]
 800403e:	bd38      	pop	{r3, r4, r5, pc}
 8004040:	20000244 	.word	0x20000244

08004044 <__malloc_lock>:
 8004044:	4801      	ldr	r0, [pc, #4]	; (800404c <__malloc_lock+0x8>)
 8004046:	f000 b811 	b.w	800406c <__retarget_lock_acquire_recursive>
 800404a:	bf00      	nop
 800404c:	2000024c 	.word	0x2000024c

08004050 <__malloc_unlock>:
 8004050:	4801      	ldr	r0, [pc, #4]	; (8004058 <__malloc_unlock+0x8>)
 8004052:	f000 b80c 	b.w	800406e <__retarget_lock_release_recursive>
 8004056:	bf00      	nop
 8004058:	2000024c 	.word	0x2000024c

0800405c <_malloc_usable_size_r>:
 800405c:	f851 3c04 	ldr.w	r3, [r1, #-4]
 8004060:	1f18      	subs	r0, r3, #4
 8004062:	2b00      	cmp	r3, #0
 8004064:	bfbc      	itt	lt
 8004066:	580b      	ldrlt	r3, [r1, r0]
 8004068:	18c0      	addlt	r0, r0, r3
 800406a:	4770      	bx	lr

0800406c <__retarget_lock_acquire_recursive>:
 800406c:	4770      	bx	lr

0800406e <__retarget_lock_release_recursive>:
 800406e:	4770      	bx	lr

08004070 <_init>:
 8004070:	b5f8      	push	{r3, r4, r5, r6, r7, lr}
 8004072:	bf00      	nop
 8004074:	bcf8      	pop	{r3, r4, r5, r6, r7}
 8004076:	bc08      	pop	{r3}
 8004078:	469e      	mov	lr, r3
 800407a:	4770      	bx	lr

0800407c <_fini>:
 800407c:	b5f8      	push	{r3, r4, r5, r6, r7, lr}
 800407e:	bf00      	nop
 8004080:	bcf8      	pop	{r3, r4, r5, r6, r7}
 8004082:	bc08      	pop	{r3}
 8004084:	469e      	mov	lr, r3
 8004086:	4770      	bx	lr
